Certificate:
    Data:
        Version: 3 (0x2)
        Serial Number:
            82:97:35:ac:ef:ac:f3:1a:37:09:6f:10:ca:25:db:ab
        Signature Algorithm: sha256WithRSAEncryption
        Issuer: O=Swaptacular Nodes Registry, OU=Creditors Agents/serialNumber=5921983fe0e6eb987aeedca54ad3c708
        Validity
            Not Before: Jul 26 14:07:44 2023 GMT
            Not After : Jul  2 14:07:44 2123 GMT
        Subject: O=Swaptacular Nodes Registry, OU=Creditors Agents/serialNumber=5921983fe0e6eb987aeedca54ad3c708
        Subject Public Key Info:
            Public Key Algorithm: rsaEncryption
                RSA Public-Key: (3072 bit)
                Modulus:
                    00:d8:40:13:f3:4a:a8:3b:12:bf:98:3f:a1:cd:22:
                    b0:d0:77:84:d8:a6:64:95:e1:c1:79:0c:67:5a:e0:
                    27:f5:d1:40:8b:18:fd:38:ec:6e:be:c8:1e:4c:a5:
                    99:bb:d0:9a:3b:f4:ce:8e:5c:a7:13:3d:41:21:3d:
                    dd:a2:85:2c:d1:ba:53:38:43:ba:02:98:60:af:c6:
                    77:08:75:d6:13:72:bc:54:69:bf:81:cd:2d:65:41:
                    d0:79:be:f9:e5:a7:cd:e0:d5:2c:e8:39:97:f5:d2:
                    44:42:ba:eb:a3:b9:a5:ad:8d:fb:a9:29:88:b4:5b:
                    c5:2e:ad:9a:16:31:57:58:01:5d:7d:93:47:8e:21:
                    22:45:0b:39:1f:fc:20:86:06:a1:93:1a:7c:39:5e:
                    d0:eb:6c:14:ba:72:58:4f:ab:46:01:75:40:fc:c6:
                    9d:9d:d2:cc:1a:8f:5f:21:57:68:17:bb:67:13:5a:
                    50:91:fc:50:89:76:9a:ea:36:b0:eb:2e:f2:93:61:
                    0f:11:13:b2:cb:83:c2:c9:3a:0b:cf:b1:d6:58:7e:
                    bf:77:dc:b3:7b:83:1c:49:14:7c:29:c9:7d:7a:98:
                    c8:dc:91:6f:88:ec:3a:59:99:be:4c:c9:78:e5:82:
                    81:2f:02:c4:ee:e8:de:88:3b:6a:90:da:10:46:ec:
                    6f:68:b7:da:80:aa:7b:d0:4f:b2:23:24:ea:24:47:
                    b1:fd:2b:36:9b:ec:d8:43:20:cc:e0:f8:1f:85:4d:
                    fd:cd:53:e4:e0:77:72:32:60:fe:b1:43:e4:48:76:
                    23:f3:6d:2d:d0:43:90:09:51:03:cc:bb:8c:1a:84:
                    79:c6:f3:c8:21:95:50:7d:ba:c2:a8:fd:e9:07:70:
                    c5:53:b3:f7:b8:e3:b4:21:4d:c2:dc:53:97:36:87:
                    b9:83:88:27:f6:7f:7d:55:ba:3d:8d:b2:1a:d7:e2:
                    25:46:a6:63:41:07:1c:a4:50:f7:b9:d9:05:ac:09:
                    a4:0d:f2:69:96:42:4e:49:b7:15
                Exponent: 65537 (0x10001)
        X509v3 extensions:
            X509v3 Authority Key Identifier: 
                keyid:D4:61:BE:5D:A3:AF:A1:38:80:89:2E:81:A0:91:4E:C2:CD:82:13:E5

            X509v3 Basic Constraints: critical
                CA:FALSE
            X509v3 Extended Key Usage: 
                TLS Web Client Authentication, TLS Web Server Authentication
            X509v3 Key Usage: critical
                Digital Signature, Key Encipherment
            X509v3 Subject Key Identifier: 
                5F:C9:14:94:51:7D:70:B6:0B:36:A5:C6:CD:92:BD:BC:5F:DC:4B:72
    Signature Algorithm: sha256WithRSAEncryption
         70:06:c0:e7:0f:50:72:89:23:33:df:7c:ba:cb:56:e8:1f:a3:
         c1:27:f9:29:3a:a1:f0:ba:4f:4d:ac:5e:1f:52:51:2e:11:43:
         2c:c6:b1:e4:a3:ff:4d:37:36:d3:f0:bd:0e:06:76:46:37:73:
         1f:6c:25:9d:14:e0:fc:87:5e:17:4b:3e:05:04:8f:81:dd:13:
         c0:e9:73:7c:cc:8d:be:2a:ea:cb:a2:c6:31:a8:25:50:de:f8:
         eb:23:31:c1:53:67:d1:34:1d:2b:8e:d9:e3:80:b4:9f:47:f6:
         1f:22:68:73:12:80:99:62:1d:53:57:9c:1a:9b:21:4a:aa:0b:
         a5:46:1a:b8:a0:9f:3e:08:f9:94:1c:f0:f2:a8:13:36:f7:09:
         00:10:4f:32:ef:f8:57:a0:ad:4b:82:40:09:de:1f:d9:b0:33:
         5a:7b:a9:6a:7d:09:6c:82:c8:f4:e2:29:62:c3:ba:c9:8f:28:
         d2:31:4a:8b:00:01:d2:62:09:45:95:bc:38:89:d2:1e:23:1d:
         c3:58:91:f5:6a:c1:3b:7f:5d:73:0a:4e:33:22:6a:65:c2:72:
         7a:4c:e8:20:47:fc:88:01:b4:41:21:d8:6c:c9:b5:69:5a:d3:
         33:a6:e6:78:a3:62:1a:52:73:74:e5:2b:fe:90:68:24:e7:fc:
         4f:f0:65:c8:32:74:3a:68:53:e3:74:c3:c3:ae:c4:8c:68:08:
         d8:7b:fa:c5:e3:e6:69:c4:29:9c:ec:ea:c1:8f:a2:a0:9d:c9:
         4d:8d:28:31:b3:fe:63:16:90:43:20:fc:6e:5a:c1:b4:b6:d8:
         2d:d3:e2:70:13:0b:0d:b4:ee:74:55:28:63:ba:5e:b4:ee:0c:
         4f:b6:bf:1d:e4:16:2c:b9:3e:67:89:87:36:03:08:c0:a9:2b:
         c4:2f:1a:cc:3e:86:63:f8:f5:eb:ba:3a:9f:a7:dd:e2:66:da:
         72:f7:89:ba:9a:89:df:21:19:9a:15:34:d5:3c:87:8f:d7:50:
         f6:6e:aa:83:a8:36
-----BEGIN CERTIFICATE-----
MIIE4jCCA0qgAwIBAgIRAIKXNazvrPMaNwlvEMol26swDQYJKoZIhvcNAQELBQAw
azEjMCEGA1UECgwaU3dhcHRhY3VsYXIgTm9kZXMgUmVnaXN0cnkxGTAXBgNVBAsM
EENyZWRpdG9ycyBBZ2VudHMxKTAnBgNVBAUTIDU5MjE5ODNmZTBlNmViOTg3YWVl
ZGNhNTRhZDNjNzA4MCAXDTIzMDcyNjE0MDc0NFoYDzIxMjMwNzAyMTQwNzQ0WjBr
MSMwIQYDVQQKDBpTd2FwdGFjdWxhciBOb2RlcyBSZWdpc3RyeTEZMBcGA1UECwwQ
Q3JlZGl0b3JzIEFnZW50czEpMCcGA1UEBRMgNTkyMTk4M2ZlMGU2ZWI5ODdhZWVk
Y2E1NGFkM2M3MDgwggGiMA0GCSqGSIb3DQEBAQUAA4IBjwAwggGKAoIBgQDYQBPz
Sqg7Er+YP6HNIrDQd4TYpmSV4cF5DGda4Cf10UCLGP047G6+yB5MpZm70Jo79M6O
XKcTPUEhPd2ihSzRulM4Q7oCmGCvxncIddYTcrxUab+BzS1lQdB5vvnlp83g1Szo
OZf10kRCuuujuaWtjfupKYi0W8UurZoWMVdYAV19k0eOISJFCzkf/CCGBqGTGnw5
XtDrbBS6clhPq0YBdUD8xp2d0swaj18hV2gXu2cTWlCR/FCJdprqNrDrLvKTYQ8R
E7LLg8LJOgvPsdZYfr933LN7gxxJFHwpyX16mMjckW+I7DpZmb5MyXjlgoEvAsTu
6N6IO2qQ2hBG7G9ot9qAqnvQT7IjJOokR7H9Kzab7NhDIMzg+B+FTf3NU+Tgd3Iy
YP6xQ+RIdiPzbS3QQ5AJUQPMu4wahHnG88ghlVB9usKo/ekHcMVTs/e447QhTcLc
U5c2h7mDiCf2f31Vuj2NshrX4iVGpmNBBxykUPe52QWsCaQN8mmWQk5JtxUCAwEA
AaN/MH0wHwYDVR0jBBgwFoAU1GG+XaOvoTiAiS6BoJFOws2CE+UwDAYDVR0TAQH/
BAIwADAdBgNVHSUEFjAUBggrBgEFBQcDAgYIKwYBBQUHAwEwDgYDVR0PAQH/BAQD
AgWgMB0GA1UdDgQWBBRfyRSUUX1wtgs2pcbNkr28X9xLcjANBgkqhkiG9w0BAQsF
AAOCAYEAcAbA5w9QcokjM998ustW6B+jwSf5KTqh8LpPTaxeH1JRLhFDLMax5KP/
TTc20/C9DgZ2RjdzH2wlnRTg/IdeF0s+BQSPgd0TwOlzfMyNvirqy6LGMaglUN74
6yMxwVNn0TQdK47Z44C0n0f2HyJocxKAmWIdU1ecGpshSqoLpUYauKCfPgj5lBzw
8qgTNvcJABBPMu/4V6CtS4JACd4f2bAzWnupan0JbILI9OIpYsO6yY8o0jFKiwAB
0mIJRZW8OInSHiMdw1iR9WrBO39dcwpOMyJqZcJyekzoIEf8iAG0QSHYbMm1aVrT
M6bmeKNiGlJzdOUr/pBoJOf8T/BlyDJ0OmhT43TDw67EjGgI2Hv6xePmacQpnOzq
wY+ioJ3JTY0oMbP+YxaQQyD8blrBtLbYLdPicBMLDbTudFUoY7petO4MT7a/HeQW
LLk+Z4mHNgMIwKkrxC8azD6GY/j167o6n6fd4mbacveJupqJ3yEZmhU01TyHj9dQ
9m6qg6g2
-----END CERTIFICATE-----
