Certificate:
    Data:
        Version: 3 (0x2)
        Serial Number:
            82:97:35:ac:ef:ac:f3:1a:37:09:6f:10:ca:25:db:aa
        Signature Algorithm: sha256WithRSAEncryption
        Issuer: O=Swaptacular Nodes Registry, OU=Creditors Agents/serialNumber=5921983fe0e6eb987aeedca54ad3c708
        Validity
            Not Before: Jun 14 17:40:44 2023 GMT
            Not After : Jun 13 17:40:44 2024 GMT
        Subject: O=Swaptacular Nodes Registry, OU=Creditors Agents/serialNumber=5921983fe0e6eb987aeedca54ad3c708
        Subject Public Key Info:
            Public Key Algorithm: rsaEncryption
                RSA Public-Key: (3072 bit)
                Modulus:
                    00:ce:da:82:03:3c:84:73:49:2c:8d:72:b0:39:e0:
                    62:0e:1a:42:ef:0c:af:9d:97:c2:c2:76:2c:47:17:
                    35:59:48:04:e6:a6:08:9b:89:2c:d3:af:8f:7d:70:
                    80:e6:01:2a:ed:e5:76:29:94:d9:e4:13:09:1d:a8:
                    f4:33:c4:43:b5:78:96:33:4d:a9:85:d2:1e:8c:ef:
                    fe:e6:1e:af:d7:e4:bb:f7:57:63:2c:0c:1a:49:87:
                    12:61:1e:42:5b:57:b8:59:c6:20:8f:ff:60:34:b2:
                    91:20:a5:fd:14:4c:bf:17:b7:d9:6a:24:51:d8:a0:
                    0f:71:e1:64:b4:ba:f5:db:f3:1a:88:f9:9d:b3:74:
                    1f:12:9c:f5:ea:6f:d5:42:7a:74:47:f6:55:c9:94:
                    fa:0b:58:1f:ce:34:3e:98:c6:a3:a2:bd:7c:56:fb:
                    68:44:41:07:f1:71:31:5a:ca:9e:00:73:c9:56:89:
                    ce:63:d0:ee:62:85:6f:6d:79:6b:48:0d:ee:35:d5:
                    d3:cd:e2:20:37:07:5b:4b:8e:27:95:31:c8:19:52:
                    c0:89:f3:75:2f:eb:72:10:b3:b9:52:7b:63:4d:d2:
                    fa:41:8b:e5:e4:d4:fb:db:29:fb:b8:f8:71:4d:3e:
                    cd:41:98:db:6a:78:e1:f9:e2:ae:64:dd:86:e7:8f:
                    c7:3d:d8:45:2e:34:81:ca:3b:cb:39:02:7c:ee:cc:
                    71:f9:c6:68:24:39:68:4f:f9:70:44:be:be:29:0e:
                    d4:fd:32:27:67:69:dd:00:9d:bd:e9:78:b0:fb:21:
                    ff:ea:63:db:59:be:ff:c5:48:b0:a6:87:5c:75:44:
                    4b:8b:31:75:9e:85:f6:db:3d:42:e3:08:47:88:6f:
                    30:3e:9a:6b:28:27:85:68:64:fe:d9:58:ea:89:b7:
                    35:dd:4e:ad:65:11:22:80:39:fa:9e:82:2b:29:94:
                    c5:77:c3:f4:5f:8c:f3:0e:76:78:42:ec:5b:d5:5d:
                    dc:f8:a0:b3:d7:97:aa:4e:eb:31
                Exponent: 65537 (0x10001)
        X509v3 extensions:
            X509v3 Authority Key Identifier: 
                keyid:D4:61:BE:5D:A3:AF:A1:38:80:89:2E:81:A0:91:4E:C2:CD:82:13:E5

            X509v3 Basic Constraints: critical
                CA:FALSE
            X509v3 Extended Key Usage: 
                TLS Web Client Authentication, TLS Web Server Authentication
            X509v3 Key Usage: critical
                Digital Signature, Key Encipherment
            X509v3 Subject Key Identifier: 
                6D:68:20:78:F0:0C:71:7C:79:BB:85:6F:4D:4B:39:58:7F:88:C4:39
    Signature Algorithm: sha256WithRSAEncryption
         43:c1:37:de:47:be:e0:e1:5e:6f:e5:73:2c:e6:fc:32:f5:37:
         a6:c9:b7:ba:49:63:dd:c7:8d:34:e9:2b:cb:ca:dd:8b:1d:88:
         33:bf:26:71:b8:d5:f3:b2:50:0c:d8:5e:b5:54:24:ca:c2:d1:
         b6:33:05:d0:0c:74:72:a3:e0:6c:c7:14:ad:2e:28:dd:a4:9c:
         4d:0a:a6:8a:8a:71:37:6e:dc:48:4b:dc:e0:7a:e0:1e:1e:80:
         e6:59:58:92:bb:ff:a1:e4:ed:93:23:e5:80:1c:53:52:0d:aa:
         cb:ec:b3:24:44:45:bf:3f:7b:48:86:2f:37:9a:af:0e:09:b4:
         38:a1:61:60:41:72:62:c0:c6:95:88:79:fd:a7:01:20:23:02:
         3a:5e:a3:86:41:69:12:f2:60:4c:ae:09:0c:b8:51:48:c1:90:
         4e:96:14:79:29:fd:7b:85:78:f4:1e:8d:6c:7c:b7:5e:39:c3:
         36:3e:6d:7c:dc:59:ca:e1:36:97:83:88:18:09:ec:f6:0b:33:
         20:2e:b8:9d:07:a9:53:64:a6:c8:0c:4a:87:94:d4:34:5c:12:
         f5:07:c5:ad:09:9f:f3:6e:01:73:43:e7:44:d0:b2:a4:c1:19:
         7a:8e:4b:1c:71:88:41:96:e8:ba:fa:ac:e1:28:c1:35:61:08:
         12:0c:35:81:c1:e3:8e:ad:72:23:81:83:57:15:a4:36:53:72:
         c4:1c:97:e9:85:a7:48:33:5a:a3:78:b1:7a:36:0f:5f:67:2c:
         11:de:75:9f:4a:46:b4:f4:89:45:15:22:86:cb:9d:b7:49:56:
         9e:d0:a3:9c:dc:e5:59:ee:91:0b:ca:27:ee:b6:89:dc:53:f6:
         8a:4e:af:51:05:c4:97:b2:4c:f2:cf:ee:76:3d:b7:19:d7:ed:
         7a:d4:a0:ab:ad:68:6f:05:a4:dc:6b:5e:cc:d1:c0:e8:4c:95:
         89:44:47:1a:f4:f0:1e:4d:af:97:a8:61:c8:3d:aa:3e:a0:7c:
         6b:ee:40:b9:e3:93
-----BEGIN CERTIFICATE-----
MIIE4DCCA0igAwIBAgIRAIKXNazvrPMaNwlvEMol26owDQYJKoZIhvcNAQELBQAw
azEjMCEGA1UECgwaU3dhcHRhY3VsYXIgTm9kZXMgUmVnaXN0cnkxGTAXBgNVBAsM
EENyZWRpdG9ycyBBZ2VudHMxKTAnBgNVBAUTIDU5MjE5ODNmZTBlNmViOTg3YWVl
ZGNhNTRhZDNjNzA4MB4XDTIzMDYxNDE3NDA0NFoXDTI0MDYxMzE3NDA0NFowazEj
MCEGA1UECgwaU3dhcHRhY3VsYXIgTm9kZXMgUmVnaXN0cnkxGTAXBgNVBAsMEENy
ZWRpdG9ycyBBZ2VudHMxKTAnBgNVBAUTIDU5MjE5ODNmZTBlNmViOTg3YWVlZGNh
NTRhZDNjNzA4MIIBojANBgkqhkiG9w0BAQEFAAOCAY8AMIIBigKCAYEAztqCAzyE
c0ksjXKwOeBiDhpC7wyvnZfCwnYsRxc1WUgE5qYIm4ks06+PfXCA5gEq7eV2KZTZ
5BMJHaj0M8RDtXiWM02phdIejO/+5h6v1+S791djLAwaSYcSYR5CW1e4WcYgj/9g
NLKRIKX9FEy/F7fZaiRR2KAPceFktLr12/MaiPmds3QfEpz16m/VQnp0R/ZVyZT6
C1gfzjQ+mMajor18VvtoREEH8XExWsqeAHPJVonOY9DuYoVvbXlrSA3uNdXTzeIg
NwdbS44nlTHIGVLAifN1L+tyELO5UntjTdL6QYvl5NT72yn7uPhxTT7NQZjbanjh
+eKuZN2G54/HPdhFLjSByjvLOQJ87sxx+cZoJDloT/lwRL6+KQ7U/TInZ2ndAJ29
6Xiw+yH/6mPbWb7/xUiwpodcdURLizF1noX22z1C4whHiG8wPpprKCeFaGT+2Vjq
ibc13U6tZREigDn6noIrKZTFd8P0X4zzDnZ4Quxb1V3c+KCz15eqTusxAgMBAAGj
fzB9MB8GA1UdIwQYMBaAFNRhvl2jr6E4gIkugaCRTsLNghPlMAwGA1UdEwEB/wQC
MAAwHQYDVR0lBBYwFAYIKwYBBQUHAwIGCCsGAQUFBwMBMA4GA1UdDwEB/wQEAwIF
oDAdBgNVHQ4EFgQUbWggePAMcXx5u4VvTUs5WH+IxDkwDQYJKoZIhvcNAQELBQAD
ggGBAEPBN95HvuDhXm/lcyzm/DL1N6bJt7pJY93HjTTpK8vK3YsdiDO/JnG41fOy
UAzYXrVUJMrC0bYzBdAMdHKj4GzHFK0uKN2knE0KpoqKcTdu3EhL3OB64B4egOZZ
WJK7/6Hk7ZMj5YAcU1INqsvssyRERb8/e0iGLzearw4JtDihYWBBcmLAxpWIef2n
ASAjAjpeo4ZBaRLyYEyuCQy4UUjBkE6WFHkp/XuFePQejWx8t145wzY+bXzcWcrh
NpeDiBgJ7PYLMyAuuJ0HqVNkpsgMSoeU1DRcEvUHxa0Jn/NuAXND50TQsqTBGXqO
SxxxiEGW6Lr6rOEowTVhCBIMNYHB446tciOBg1cVpDZTcsQcl+mFp0gzWqN4sXo2
D19nLBHedZ9KRrT0iUUVIobLnbdJVp7Qo5zc5VnukQvKJ+62idxT9opOr1EFxJey
TPLP7nY9txnX7XrUoKutaG8FpNxrXszRwOhMlYlERxr08B5Nr5eoYcg9qj6gfGvu
QLnjkw==
-----END CERTIFICATE-----
