Certificate:
    Data:
        Version: 3 (0x2)
        Serial Number:
            82:97:35:ac:ef:ac:f3:1a:37:09:6f:10:ca:25:db:a9
        Signature Algorithm: sha256WithRSAEncryption
        Issuer: O=Swaptacular Nodes Registry, OU=Creditors Agents/serialNumber=5921983fe0e6eb987aeedca54ad3c708
        Validity
            Not Before: Jun 12 15:41:59 2023 GMT
            Not After : Oct 13 15:41:59 3022 GMT
        Subject: O=Swaptacular Nodes Registry, OU=Accounting Authorities/serialNumber=1234abcd
        Subject Public Key Info:
            Public Key Algorithm: rsaEncryption
                RSA Public-Key: (3072 bit)
                Modulus:
                    00:a1:76:1e:08:0a:c9:23:69:be:f2:db:96:fa:9e:
                    06:d1:f6:b5:d9:27:fe:23:20:d0:d7:5a:0d:07:dd:
                    c7:78:e0:10:a9:5d:c6:a2:dc:38:d4:84:07:d0:18:
                    2f:2a:98:d6:d9:1a:65:f3:d5:2c:96:16:c3:b4:dc:
                    41:34:ce:55:e4:cc:98:b9:8b:ad:e6:71:07:4f:5b:
                    03:80:34:07:28:4c:91:2f:eb:dd:99:71:07:8e:df:
                    8f:2a:69:4a:01:5a:6a:53:d7:4d:f3:09:e2:9b:c3:
                    86:24:6a:b7:18:25:bb:46:26:d4:93:b5:bd:2e:f6:
                    24:41:82:36:13:a9:36:37:4e:8f:20:e4:bd:3b:ef:
                    28:39:fa:af:7a:8d:8a:06:58:6a:cf:ac:fc:82:8d:
                    8b:04:e9:e6:e2:00:18:bc:5b:af:cc:24:90:66:6a:
                    46:31:64:60:c1:fd:99:a4:d3:d9:95:9d:8b:f6:8b:
                    d7:03:e0:f3:ea:b1:35:d3:43:d9:76:1c:c9:d2:d0:
                    f8:f0:93:d3:e4:2c:b0:02:28:5c:79:d1:e1:d2:90:
                    84:9d:c3:bf:d7:4e:b3:f4:cb:d3:72:8d:06:01:c2:
                    3a:a1:38:fa:73:ae:0e:23:19:78:7f:a8:d6:b8:96:
                    c5:c3:99:ea:4d:bb:39:22:85:33:b5:00:bc:35:16:
                    14:94:93:11:5f:6d:f0:9c:c3:f1:b2:c4:34:87:8b:
                    26:3e:d8:da:e5:1b:02:16:c1:1a:30:ec:c0:df:2d:
                    ed:ed:71:37:66:ac:39:8c:c7:19:08:c8:b4:89:8e:
                    f6:89:e4:2c:4c:9f:17:0c:f0:fd:82:7f:d8:a8:94:
                    64:1c:93:63:cd:13:2d:78:c6:9b:2f:34:dc:a5:10:
                    a5:36:85:8a:12:7c:21:03:e0:95:88:90:7a:9e:26:
                    ee:f0:02:8b:90:0f:b2:71:e5:b0:45:3a:eb:50:0c:
                    09:a7:d0:61:4a:35:24:93:74:f4:c4:0a:b4:a2:5d:
                    43:43:08:10:2f:4f:96:4e:59:0f
                Exponent: 65537 (0x10001)
        X509v3 extensions:
            X509v3 Authority Key Identifier: 
                keyid:D4:61:BE:5D:A3:AF:A1:38:80:89:2E:81:A0:91:4E:C2:CD:82:13:E5

            X509v3 Basic Constraints: critical
                CA:TRUE, pathlen:0
            X509v3 Extended Key Usage: 
                TLS Web Client Authentication, TLS Web Server Authentication
            X509v3 Key Usage: critical
                Certificate Sign, CRL Sign
            X509v3 Name Constraints: critical
                Permitted:
                  DirName:O = Swaptacular Nodes Registry, OU = Accounting Authorities, serialNumber = 1234abcd

            X509v3 Subject Key Identifier: 
                2C:CF:E8:58:52:78:FA:3E:BA:51:72:57:25:3A:19:B4:AE:52:C9:34
            Netscape Comment: 
                ..
    Signature Algorithm: sha256WithRSAEncryption
         0f:ba:55:a5:48:5f:c0:c5:1b:4a:6f:d7:19:b7:e7:2b:f9:cb:
         38:a8:a8:61:ce:c7:2e:c5:b1:8b:e9:d9:37:58:5e:d8:a7:ed:
         fd:b8:8b:d2:21:2c:16:19:d9:bd:46:36:0a:5a:48:9d:7b:67:
         1e:d9:35:dc:6a:92:2a:ac:b5:73:1f:cf:f9:28:ab:73:8a:85:
         4a:c9:9e:53:6c:1e:41:73:da:ab:6e:d6:b8:9b:7d:c6:df:f8:
         9d:27:6c:fb:3e:f2:ee:80:f0:ff:ea:08:a6:48:5e:ca:dd:71:
         e5:f5:cd:13:cc:ed:d4:cf:92:98:d6:f8:50:ff:e3:f9:fd:86:
         f6:6e:81:f3:3c:2e:69:2d:41:03:bc:95:16:60:2c:3f:a3:2f:
         11:01:f9:ed:fb:a7:9b:6f:d3:74:aa:1c:24:02:5f:90:d0:52:
         bd:10:1d:8d:6e:c8:ed:a5:d3:bd:55:ad:3d:f7:e4:e4:84:eb:
         e5:7d:d9:15:a9:20:ab:b7:fe:11:b0:a8:26:33:ee:66:96:2b:
         6c:af:89:fd:d3:a9:1b:c2:62:97:9d:2c:33:ec:c6:fa:a2:f8:
         f3:73:9d:c3:6f:72:2a:08:7e:21:b0:16:93:58:06:12:9e:91:
         ca:52:d0:46:22:a8:bf:1a:f7:8f:04:65:ca:fe:b6:d4:54:e2:
         ef:db:30:55:67:ea:63:fd:da:c2:04:ec:cd:f8:ec:cd:7f:35:
         12:79:2f:2a:ad:fd:c1:fc:8e:40:93:a2:85:12:95:d1:e7:c1:
         6d:00:06:8b:50:98:7f:4c:e1:46:6c:0d:7c:64:2f:29:c8:e0:
         40:43:05:4f:9e:09:df:68:ed:2c:a5:a5:a8:48:ae:2b:6b:ae:
         b8:94:1a:80:25:06:ca:45:57:68:39:ad:f4:41:4f:b8:81:f8:
         88:b6:c4:9a:0a:ed:06:b5:46:c5:d4:c8:6b:ed:90:93:86:88:
         e1:da:a0:ed:5d:da:56:cb:b6:28:9f:7b:dc:9c:44:56:dc:0d:
         60:ae:b5:3f:b7:2b
-----BEGIN CERTIFICATE-----
MIIFWjCCA8KgAwIBAgIRAIKXNazvrPMaNwlvEMol26kwDQYJKoZIhvcNAQELBQAw
azEjMCEGA1UECgwaU3dhcHRhY3VsYXIgTm9kZXMgUmVnaXN0cnkxGTAXBgNVBAsM
EENyZWRpdG9ycyBBZ2VudHMxKTAnBgNVBAUTIDU5MjE5ODNmZTBlNmViOTg3YWVl
ZGNhNTRhZDNjNzA4MCAXDTIzMDYxMjE1NDE1OVoYDzMwMjIxMDEzMTU0MTU5WjBZ
MSMwIQYDVQQKDBpTd2FwdGFjdWxhciBOb2RlcyBSZWdpc3RyeTEfMB0GA1UECwwW
QWNjb3VudGluZyBBdXRob3JpdGllczERMA8GA1UEBRMIMTIzNGFiY2QwggGiMA0G
CSqGSIb3DQEBAQUAA4IBjwAwggGKAoIBgQChdh4ICskjab7y25b6ngbR9rXZJ/4j
INDXWg0H3cd44BCpXcai3DjUhAfQGC8qmNbZGmXz1SyWFsO03EE0zlXkzJi5i63m
cQdPWwOANAcoTJEv692ZcQeO348qaUoBWmpT103zCeKbw4YkarcYJbtGJtSTtb0u
9iRBgjYTqTY3To8g5L077yg5+q96jYoGWGrPrPyCjYsE6ebiABi8W6/MJJBmakYx
ZGDB/Zmk09mVnYv2i9cD4PPqsTXTQ9l2HMnS0Pjwk9PkLLACKFx50eHSkISdw7/X
TrP0y9NyjQYBwjqhOPpzrg4jGXh/qNa4lsXDmepNuzkihTO1ALw1FhSUkxFfbfCc
w/GyxDSHiyY+2NrlGwIWwRow7MDfLe3tcTdmrDmMxxkIyLSJjvaJ5CxMnxcM8P2C
f9iolGQck2PNEy14xpsvNNylEKU2hYoSfCED4JWIkHqeJu7wAouQD7Jx5bBFOutQ
DAmn0GFKNSSTdPTECrSiXUNDCBAvT5ZOWQ8CAwEAAaOCAQcwggEDMB8GA1UdIwQY
MBaAFNRhvl2jr6E4gIkugaCRTsLNghPlMBIGA1UdEwEB/wQIMAYBAf8CAQAwHQYD
VR0lBBYwFAYIKwYBBQUHAwIGCCsGAQUFBwMBMA4GA1UdDwEB/wQEAwIBBjBtBgNV
HR4BAf8EYzBhoF8wXaRbMFkxIzAhBgNVBAoMGlN3YXB0YWN1bGFyIE5vZGVzIFJl
Z2lzdHJ5MR8wHQYDVQQLDBZBY2NvdW50aW5nIEF1dGhvcml0aWVzMREwDwYDVQQF
EwgxMjM0YWJjZDAdBgNVHQ4EFgQULM/oWFJ4+j66UXJXJToZtK5SyTQwDwYJYIZI
AYb4QgENBAIWADANBgkqhkiG9w0BAQsFAAOCAYEAD7pVpUhfwMUbSm/XGbfnK/nL
OKioYc7HLsWxi+nZN1he2Kft/biL0iEsFhnZvUY2ClpInXtnHtk13GqSKqy1cx/P
+Sirc4qFSsmeU2weQXPaq27WuJt9xt/4nSds+z7y7oDw/+oIpkheyt1x5fXNE8zt
1M+SmNb4UP/j+f2G9m6B8zwuaS1BA7yVFmAsP6MvEQH57funm2/TdKocJAJfkNBS
vRAdjW7I7aXTvVWtPffk5ITr5X3ZFakgq7f+EbCoJjPuZpYrbK+J/dOpG8Jil50s
M+zG+qL483Odw29yKgh+IbAWk1gGEp6RylLQRiKovxr3jwRlyv621FTi79swVWfq
Y/3awgTszfjszX81EnkvKq39wfyOQJOihRKV0efBbQAGi1CYf0zhRmwNfGQvKcjg
QEMFT54J32jtLKWlqEiuK2uuuJQagCUGykVXaDmt9EFPuIH4iLbEmgrtBrVGxdTI
a+2Qk4aI4dqg7V3aVsu2KJ973JxEVtwNYK61P7cr
-----END CERTIFICATE-----
