Certificate:
    Data:
        Version: 3 (0x2)
        Serial Number:
            0a:b0:00:49:18:eb:71:a4:18:2c:c1:e9:d5:44:af:95
        Signature Algorithm: sha256WithRSAEncryption
        Issuer: O=Swaptacular Nodes Registry, OU=Accounting Authorities/serialNumber=1234abcd
        Validity
            Not Before: Jun 12 16:30:14 2023 GMT
            Not After : Oct 13 16:30:14 3022 GMT
        Subject: O=Swaptacular Nodes Registry, OU=Debtors Agents/serialNumber=060791aeca7637fa3357dfc0299fb4c5
        Subject Public Key Info:
            Public Key Algorithm: rsaEncryption
                RSA Public-Key: (3072 bit)
                Modulus:
                    00:ba:7f:e4:e9:5d:a1:be:8a:e4:78:52:8c:27:a9:
                    07:41:6c:87:49:5f:37:f1:dc:d1:b1:38:49:44:71:
                    96:c1:51:db:21:9d:1d:42:3b:64:45:90:bc:88:49:
                    a0:d8:ed:07:36:18:b5:c0:3b:11:6a:20:a5:1e:40:
                    34:25:f3:99:55:61:a1:5f:64:e4:be:c6:39:f6:40:
                    12:f0:7d:ee:64:e7:12:42:41:af:18:ff:12:c9:fb:
                    f3:2b:79:45:32:29:00:34:d7:ed:e5:fc:df:99:21:
                    1e:d3:34:8d:c5:e7:95:f7:a2:45:c1:9a:6f:bb:a7:
                    e2:02:24:f0:45:b7:9b:96:f7:3f:ad:32:42:53:66:
                    d9:b3:bc:54:6a:4c:d0:e2:10:8c:14:32:e5:ff:5a:
                    85:bd:a1:eb:a8:0f:df:ca:d7:91:70:f3:42:d2:78:
                    8c:1d:b4:1c:0d:8f:01:86:a3:fc:e9:81:18:8b:c0:
                    34:2e:78:22:b9:85:4a:5d:aa:f6:c5:a4:5c:c0:62:
                    8e:d6:bb:95:8c:5a:44:e8:bd:08:6a:a3:e1:c9:c1:
                    7c:b3:3a:55:55:62:c1:4e:cf:56:05:96:33:36:1e:
                    2b:f5:5b:33:37:6d:c8:e0:96:cd:56:cd:9e:ad:6b:
                    51:77:37:77:21:57:d3:c5:ac:5d:e5:72:e7:09:35:
                    a0:e8:74:04:08:22:a5:59:4e:26:e6:4d:eb:90:75:
                    4d:ee:17:32:59:6f:8c:80:e9:67:6b:87:ee:3f:1d:
                    6a:2e:9f:07:61:b6:15:db:45:9f:fc:eb:c4:44:91:
                    82:f3:83:7c:3f:25:0b:02:ec:d5:cc:86:57:5a:ab:
                    26:3d:3b:dc:c9:00:76:07:b9:ca:6d:a3:93:99:f4:
                    0f:64:a2:4c:53:b4:13:54:bc:d0:48:73:45:6c:48:
                    fe:53:c9:9b:ff:9b:c5:2d:9b:f2:67:ac:d8:60:9b:
                    cb:b6:7a:de:3a:a8:91:1c:37:4a:c5:ac:76:cd:06:
                    fa:80:b8:65:e5:48:44:ba:4b:0d
                Exponent: 65537 (0x10001)
        X509v3 extensions:
            X509v3 Authority Key Identifier: 
                keyid:2C:CF:E8:58:52:78:FA:3E:BA:51:72:57:25:3A:19:B4:AE:52:C9:34

            X509v3 Basic Constraints: critical
                CA:TRUE, pathlen:0
            X509v3 Extended Key Usage: 
                TLS Web Client Authentication, TLS Web Server Authentication
            X509v3 Key Usage: critical
                Certificate Sign, CRL Sign
            X509v3 Name Constraints: critical
                Permitted:
                  DirName:O = Swaptacular Nodes Registry, OU = Debtors Agents, serialNumber = 060791aeca7637fa3357dfc0299fb4c5

            X509v3 Subject Key Identifier: 
                FD:9D:C5:68:67:F8:56:08:8F:BC:E9:EF:2A:68:01:C4:D1:98:AB:01
            Netscape Comment: 
                Subnet: 1234abcd00
    Signature Algorithm: sha256WithRSAEncryption
         5e:89:cd:e3:2c:f9:bb:57:00:80:4f:8e:f7:e4:3f:af:13:fa:
         18:b1:d8:c8:29:00:07:83:4d:2b:34:79:5a:32:9f:bf:92:95:
         cf:ce:5d:d9:14:b9:17:71:57:b0:e6:b9:c2:56:41:03:0b:51:
         6e:54:99:af:2f:4d:d7:65:8d:63:b4:db:bc:af:59:9d:16:28:
         af:5b:f4:58:99:d7:a5:14:28:03:10:7a:e6:b7:ca:24:b2:96:
         96:a8:3a:58:04:dc:99:0f:09:cf:53:73:a6:6d:05:1b:f3:39:
         d6:dd:4f:cf:14:81:cf:95:e8:3c:b1:5f:85:a8:8d:28:17:b5:
         28:68:4d:61:12:e7:58:6b:60:d8:dd:0e:2e:ac:ea:8d:2a:26:
         25:d8:b6:54:3e:e3:2f:42:40:28:a1:b7:21:05:f5:78:90:47:
         11:fb:b5:b8:66:cc:89:b4:bc:66:24:7c:61:88:c4:d4:13:41:
         05:39:c6:c9:1c:ba:57:15:4a:8f:51:52:0e:cd:1d:b3:8a:a6:
         ee:c6:e1:3c:c4:fa:d4:74:65:00:40:f6:ee:21:2d:e9:45:8e:
         f4:5e:88:2f:97:bb:d5:f2:98:9d:0f:a0:a4:c9:8f:62:61:c6:
         6f:57:5f:6b:79:cd:86:97:d9:97:4c:e2:58:e8:a2:23:c4:2b:
         88:42:37:b0:16:2f:72:0d:8c:0d:f6:53:07:7a:bb:0a:a5:ed:
         04:02:fb:0c:5b:c1:c3:7e:76:f6:11:c5:d0:ea:3f:5b:39:ed:
         b3:d9:96:5a:4b:af:58:52:6c:b4:06:12:96:b3:d6:47:0f:2b:
         6d:98:4b:4e:02:5c:07:17:08:82:45:35:e2:f9:13:9a:bf:e2:
         c4:e0:1c:d4:a2:c1:f5:a2:58:0f:74:0e:fe:a3:70:19:3d:bd:
         ed:44:75:b3:01:1c:d0:2a:2a:5a:4e:30:27:be:f3:8a:cb:35:
         59:0f:f9:ee:cc:39:fc:22:41:c8:61:db:11:e0:c0:ea:11:b4:
         d8:e7:16:de:48:9b
-----BEGIN CERTIFICATE-----
MIIFeTCCA+GgAwIBAgIQCrAASRjrcaQYLMHp1USvlTANBgkqhkiG9w0BAQsFADBZ
MSMwIQYDVQQKDBpTd2FwdGFjdWxhciBOb2RlcyBSZWdpc3RyeTEfMB0GA1UECwwW
QWNjb3VudGluZyBBdXRob3JpdGllczERMA8GA1UEBRMIMTIzNGFiY2QwIBcNMjMw
NjEyMTYzMDE0WhgPMzAyMjEwMTMxNjMwMTRaMGkxIzAhBgNVBAoMGlN3YXB0YWN1
bGFyIE5vZGVzIFJlZ2lzdHJ5MRcwFQYDVQQLDA5EZWJ0b3JzIEFnZW50czEpMCcG
A1UEBRMgMDYwNzkxYWVjYTc2MzdmYTMzNTdkZmMwMjk5ZmI0YzUwggGiMA0GCSqG
SIb3DQEBAQUAA4IBjwAwggGKAoIBgQC6f+TpXaG+iuR4UownqQdBbIdJXzfx3NGx
OElEcZbBUdshnR1CO2RFkLyISaDY7Qc2GLXAOxFqIKUeQDQl85lVYaFfZOS+xjn2
QBLwfe5k5xJCQa8Y/xLJ+/MreUUyKQA01+3l/N+ZIR7TNI3F55X3okXBmm+7p+IC
JPBFt5uW9z+tMkJTZtmzvFRqTNDiEIwUMuX/WoW9oeuoD9/K15Fw80LSeIwdtBwN
jwGGo/zpgRiLwDQueCK5hUpdqvbFpFzAYo7Wu5WMWkTovQhqo+HJwXyzOlVVYsFO
z1YFljM2Hiv1WzM3bcjgls1WzZ6ta1F3N3chV9PFrF3lcucJNaDodAQIIqVZTibm
TeuQdU3uFzJZb4yA6Wdrh+4/HWounwdhthXbRZ/868REkYLzg3w/JQsC7NXMhlda
qyY9O9zJAHYHucpto5OZ9A9kokxTtBNUvNBIc0VsSP5TyZv/m8Utm/JnrNhgm8u2
et46qJEcN0rFrHbNBvqAuGXlSES6Sw0CAwEAAaOCASkwggElMB8GA1UdIwQYMBaA
FCzP6FhSePo+ulFyVyU6GbSuUsk0MBIGA1UdEwEB/wQIMAYBAf8CAQAwHQYDVR0l
BBYwFAYIKwYBBQUHAwIGCCsGAQUFBwMBMA4GA1UdDwEB/wQEAwIBBjB9BgNVHR4B
Af8EczBxoG8wbaRrMGkxIzAhBgNVBAoMGlN3YXB0YWN1bGFyIE5vZGVzIFJlZ2lz
dHJ5MRcwFQYDVQQLDA5EZWJ0b3JzIEFnZW50czEpMCcGA1UEBRMgMDYwNzkxYWVj
YTc2MzdmYTMzNTdkZmMwMjk5ZmI0YzUwHQYDVR0OBBYEFP2dxWhn+FYIj7zp7ypo
AcTRmKsBMCEGCWCGSAGG+EIBDQQUFhJTdWJuZXQ6IDEyMzRhYmNkMDAwDQYJKoZI
hvcNAQELBQADggGBAF6JzeMs+btXAIBPjvfkP68T+hix2MgpAAeDTSs0eVoyn7+S
lc/OXdkUuRdxV7DmucJWQQMLUW5Uma8vTddljWO027yvWZ0WKK9b9FiZ16UUKAMQ
eua3yiSylpaoOlgE3JkPCc9Tc6ZtBRvzOdbdT88Ugc+V6DyxX4WojSgXtShoTWES
51hrYNjdDi6s6o0qJiXYtlQ+4y9CQCihtyEF9XiQRxH7tbhmzIm0vGYkfGGIxNQT
QQU5xskculcVSo9RUg7NHbOKpu7G4TzE+tR0ZQBA9u4hLelFjvReiC+Xu9XymJ0P
oKTJj2Jhxm9XX2t5zYaX2ZdM4ljooiPEK4hCN7AWL3INjA32Uwd6uwql7QQC+wxb
wcN+dvYRxdDqP1s57bPZllpLr1hSbLQGEpaz1kcPK22YS04CXAcXCIJFNeL5E5q/
4sTgHNSiwfWiWA90Dv6jcBk9ve1EdbMBHNAqKlpOMCe+84rLNVkP+e7MOfwiQchh
2xHgwOoRtNjnFt5Imw==
-----END CERTIFICATE-----
