Certificate:
    Data:
        Version: 3 (0x2)
        Serial Number:
            5c:95:f6:a8:79:e5:2e:6c:30:30:54:51:b6:ca:56:1a
        Signature Algorithm: sha256WithRSAEncryption
        Issuer: O=Swaptacular Nodes Registry, OU=Debtors Agents/serialNumber=060791aeca7637fa3357dfc0299fb4c5
        Validity
            Not Before: Jun 12 16:04:25 2023 GMT
            Not After : Oct 13 16:04:25 3022 GMT
        Subject: O=Swaptacular Nodes Registry, OU=Accounting Authorities/serialNumber=1234abcd
        Subject Public Key Info:
            Public Key Algorithm: rsaEncryption
                RSA Public-Key: (3072 bit)
                Modulus:
                    00:a1:76:1e:08:0a:c9:23:69:be:f2:db:96:fa:9e:
                    06:d1:f6:b5:d9:27:fe:23:20:d0:d7:5a:0d:07:dd:
                    c7:78:e0:10:a9:5d:c6:a2:dc:38:d4:84:07:d0:18:
                    2f:2a:98:d6:d9:1a:65:f3:d5:2c:96:16:c3:b4:dc:
                    41:34:ce:55:e4:cc:98:b9:8b:ad:e6:71:07:4f:5b:
                    03:80:34:07:28:4c:91:2f:eb:dd:99:71:07:8e:df:
                    8f:2a:69:4a:01:5a:6a:53:d7:4d:f3:09:e2:9b:c3:
                    86:24:6a:b7:18:25:bb:46:26:d4:93:b5:bd:2e:f6:
                    24:41:82:36:13:a9:36:37:4e:8f:20:e4:bd:3b:ef:
                    28:39:fa:af:7a:8d:8a:06:58:6a:cf:ac:fc:82:8d:
                    8b:04:e9:e6:e2:00:18:bc:5b:af:cc:24:90:66:6a:
                    46:31:64:60:c1:fd:99:a4:d3:d9:95:9d:8b:f6:8b:
                    d7:03:e0:f3:ea:b1:35:d3:43:d9:76:1c:c9:d2:d0:
                    f8:f0:93:d3:e4:2c:b0:02:28:5c:79:d1:e1:d2:90:
                    84:9d:c3:bf:d7:4e:b3:f4:cb:d3:72:8d:06:01:c2:
                    3a:a1:38:fa:73:ae:0e:23:19:78:7f:a8:d6:b8:96:
                    c5:c3:99:ea:4d:bb:39:22:85:33:b5:00:bc:35:16:
                    14:94:93:11:5f:6d:f0:9c:c3:f1:b2:c4:34:87:8b:
                    26:3e:d8:da:e5:1b:02:16:c1:1a:30:ec:c0:df:2d:
                    ed:ed:71:37:66:ac:39:8c:c7:19:08:c8:b4:89:8e:
                    f6:89:e4:2c:4c:9f:17:0c:f0:fd:82:7f:d8:a8:94:
                    64:1c:93:63:cd:13:2d:78:c6:9b:2f:34:dc:a5:10:
                    a5:36:85:8a:12:7c:21:03:e0:95:88:90:7a:9e:26:
                    ee:f0:02:8b:90:0f:b2:71:e5:b0:45:3a:eb:50:0c:
                    09:a7:d0:61:4a:35:24:93:74:f4:c4:0a:b4:a2:5d:
                    43:43:08:10:2f:4f:96:4e:59:0f
                Exponent: 65537 (0x10001)
        X509v3 extensions:
            X509v3 Authority Key Identifier: 
                keyid:FD:9D:C5:68:67:F8:56:08:8F:BC:E9:EF:2A:68:01:C4:D1:98:AB:01

            X509v3 Basic Constraints: critical
                CA:TRUE, pathlen:0
            X509v3 Extended Key Usage: 
                TLS Web Client Authentication, TLS Web Server Authentication
            X509v3 Key Usage: critical
                Certificate Sign, CRL Sign
            X509v3 Name Constraints: critical
                Permitted:
                  DirName:O = Swaptacular Nodes Registry, OU = Accounting Authorities, serialNumber = 1234abcd

            X509v3 Subject Key Identifier: 
                2C:CF:E8:58:52:78:FA:3E:BA:51:72:57:25:3A:19:B4:AE:52:C9:34
            Netscape Comment: 
                ..
    Signature Algorithm: sha256WithRSAEncryption
         9e:a0:81:e3:2b:e0:63:b5:d5:48:71:e8:63:71:70:c7:5b:80:
         af:5c:8c:1b:86:d7:e2:1c:48:27:5f:fe:5c:7a:98:75:c8:13:
         ff:e5:f1:99:79:bb:2e:92:bb:cc:58:ae:cd:95:b6:26:f2:19:
         87:d4:f2:16:73:ab:cf:73:12:fa:94:c5:a9:4d:55:09:32:fe:
         fc:13:85:62:88:40:84:08:dd:01:30:c5:55:81:c4:82:4f:f9:
         de:c8:88:d3:36:aa:31:11:68:52:c7:de:29:c4:83:1c:8c:e3:
         92:0f:75:b5:e7:14:0a:a7:1b:dd:07:55:b8:4d:7d:98:21:33:
         84:03:b5:da:8e:24:75:98:7b:b3:b6:f3:a9:f7:71:91:a6:0c:
         81:ff:08:5b:d6:ad:8b:b5:86:df:8f:17:64:c7:c2:88:f2:06:
         1e:47:81:83:30:3f:cf:d0:c9:47:ad:72:64:8a:16:8c:41:0b:
         65:62:85:7c:be:c1:47:ec:c4:b9:28:78:c0:3c:08:41:3a:e6:
         31:d9:4c:ee:4a:44:cd:26:49:7e:5d:a0:ef:46:90:af:ba:b6:
         1b:b6:0e:27:0d:ac:cc:20:10:e4:2a:c0:a0:80:03:64:98:49:
         c7:37:2d:a5:84:60:3f:9b:43:ec:e9:14:87:84:8b:8c:d2:dc:
         ea:dc:5b:6d:51:ab:82:71:1d:09:dc:0f:96:00:dd:b6:9c:97:
         6b:59:8f:7f:21:21:c1:a8:77:8c:b1:0d:92:9f:88:72:62:9b:
         bc:88:ec:f5:f3:dd:fa:f2:23:cc:dd:1b:82:c9:c9:f5:0d:32:
         2d:aa:89:8e:1b:7a:bd:2e:dc:e9:c6:08:b5:84:27:32:1b:8a:
         93:77:79:67:a5:4d:55:38:ec:68:c4:02:24:99:a9:b1:a4:82:
         a8:f3:86:d1:e0:cd:1c:e2:54:1c:96:91:2b:70:b3:f8:1e:b9:
         85:74:c8:4d:96:86:24:28:cc:1f:96:cf:9b:04:3c:5b:24:c5:
         30:4f:db:4f:6d:ac
-----BEGIN CERTIFICATE-----
MIIFVzCCA7+gAwIBAgIQXJX2qHnlLmwwMFRRtspWGjANBgkqhkiG9w0BAQsFADBp
MSMwIQYDVQQKDBpTd2FwdGFjdWxhciBOb2RlcyBSZWdpc3RyeTEXMBUGA1UECwwO
RGVidG9ycyBBZ2VudHMxKTAnBgNVBAUTIDA2MDc5MWFlY2E3NjM3ZmEzMzU3ZGZj
MDI5OWZiNGM1MCAXDTIzMDYxMjE2MDQyNVoYDzMwMjIxMDEzMTYwNDI1WjBZMSMw
IQYDVQQKDBpTd2FwdGFjdWxhciBOb2RlcyBSZWdpc3RyeTEfMB0GA1UECwwWQWNj
b3VudGluZyBBdXRob3JpdGllczERMA8GA1UEBRMIMTIzNGFiY2QwggGiMA0GCSqG
SIb3DQEBAQUAA4IBjwAwggGKAoIBgQChdh4ICskjab7y25b6ngbR9rXZJ/4jINDX
Wg0H3cd44BCpXcai3DjUhAfQGC8qmNbZGmXz1SyWFsO03EE0zlXkzJi5i63mcQdP
WwOANAcoTJEv692ZcQeO348qaUoBWmpT103zCeKbw4YkarcYJbtGJtSTtb0u9iRB
gjYTqTY3To8g5L077yg5+q96jYoGWGrPrPyCjYsE6ebiABi8W6/MJJBmakYxZGDB
/Zmk09mVnYv2i9cD4PPqsTXTQ9l2HMnS0Pjwk9PkLLACKFx50eHSkISdw7/XTrP0
y9NyjQYBwjqhOPpzrg4jGXh/qNa4lsXDmepNuzkihTO1ALw1FhSUkxFfbfCcw/Gy
xDSHiyY+2NrlGwIWwRow7MDfLe3tcTdmrDmMxxkIyLSJjvaJ5CxMnxcM8P2Cf9io
lGQck2PNEy14xpsvNNylEKU2hYoSfCED4JWIkHqeJu7wAouQD7Jx5bBFOutQDAmn
0GFKNSSTdPTECrSiXUNDCBAvT5ZOWQ8CAwEAAaOCAQcwggEDMB8GA1UdIwQYMBaA
FP2dxWhn+FYIj7zp7ypoAcTRmKsBMBIGA1UdEwEB/wQIMAYBAf8CAQAwHQYDVR0l
BBYwFAYIKwYBBQUHAwIGCCsGAQUFBwMBMA4GA1UdDwEB/wQEAwIBBjBtBgNVHR4B
Af8EYzBhoF8wXaRbMFkxIzAhBgNVBAoMGlN3YXB0YWN1bGFyIE5vZGVzIFJlZ2lz
dHJ5MR8wHQYDVQQLDBZBY2NvdW50aW5nIEF1dGhvcml0aWVzMREwDwYDVQQFEwgx
MjM0YWJjZDAdBgNVHQ4EFgQULM/oWFJ4+j66UXJXJToZtK5SyTQwDwYJYIZIAYb4
QgENBAIWADANBgkqhkiG9w0BAQsFAAOCAYEAnqCB4yvgY7XVSHHoY3Fwx1uAr1yM
G4bX4hxIJ1/+XHqYdcgT/+XxmXm7LpK7zFiuzZW2JvIZh9TyFnOrz3MS+pTFqU1V
CTL+/BOFYohAhAjdATDFVYHEgk/53siI0zaqMRFoUsfeKcSDHIzjkg91tecUCqcb
3QdVuE19mCEzhAO12o4kdZh7s7bzqfdxkaYMgf8IW9ati7WG348XZMfCiPIGHkeB
gzA/z9DJR61yZIoWjEELZWKFfL7BR+zEuSh4wDwIQTrmMdlM7kpEzSZJfl2g70aQ
r7q2G7YOJw2szCAQ5CrAoIADZJhJxzctpYRgP5tD7OkUh4SLjNLc6txbbVGrgnEd
CdwPlgDdtpyXa1mPfyEhwah3jLENkp+IcmKbvIjs9fPd+vIjzN0bgsnJ9Q0yLaqJ
jht6vS7c6cYItYQnMhuKk3d5Z6VNVTjsaMQCJJmpsaSCqPOG0eDNHOJUHJaRK3Cz
+B65hXTITZaGJCjMH5bPmwQ8WyTFME/bT22s
-----END CERTIFICATE-----
