Certificate:
    Data:
        Version: 3 (0x2)
        Serial Number:
            0a:b0:00:49:18:eb:71:a4:18:2c:c1:e9:d5:44:af:93
        Signature Algorithm: sha256WithRSAEncryption
        Issuer: O=Swaptacular Nodes Registry, OU=Accounting Authorities/serialNumber=1234abcd
        Validity
            Not Before: Jun 12 15:37:36 2023 GMT
            Not After : Oct 13 15:37:36 3022 GMT
        Subject: O=Swaptacular Nodes Registry, OU=Accounting Authorities/serialNumber=1234abcd
        Subject Public Key Info:
            Public Key Algorithm: rsaEncryption
                RSA Public-Key: (3072 bit)
                Modulus:
                    00:a1:76:1e:08:0a:c9:23:69:be:f2:db:96:fa:9e:
                    06:d1:f6:b5:d9:27:fe:23:20:d0:d7:5a:0d:07:dd:
                    c7:78:e0:10:a9:5d:c6:a2:dc:38:d4:84:07:d0:18:
                    2f:2a:98:d6:d9:1a:65:f3:d5:2c:96:16:c3:b4:dc:
                    41:34:ce:55:e4:cc:98:b9:8b:ad:e6:71:07:4f:5b:
                    03:80:34:07:28:4c:91:2f:eb:dd:99:71:07:8e:df:
                    8f:2a:69:4a:01:5a:6a:53:d7:4d:f3:09:e2:9b:c3:
                    86:24:6a:b7:18:25:bb:46:26:d4:93:b5:bd:2e:f6:
                    24:41:82:36:13:a9:36:37:4e:8f:20:e4:bd:3b:ef:
                    28:39:fa:af:7a:8d:8a:06:58:6a:cf:ac:fc:82:8d:
                    8b:04:e9:e6:e2:00:18:bc:5b:af:cc:24:90:66:6a:
                    46:31:64:60:c1:fd:99:a4:d3:d9:95:9d:8b:f6:8b:
                    d7:03:e0:f3:ea:b1:35:d3:43:d9:76:1c:c9:d2:d0:
                    f8:f0:93:d3:e4:2c:b0:02:28:5c:79:d1:e1:d2:90:
                    84:9d:c3:bf:d7:4e:b3:f4:cb:d3:72:8d:06:01:c2:
                    3a:a1:38:fa:73:ae:0e:23:19:78:7f:a8:d6:b8:96:
                    c5:c3:99:ea:4d:bb:39:22:85:33:b5:00:bc:35:16:
                    14:94:93:11:5f:6d:f0:9c:c3:f1:b2:c4:34:87:8b:
                    26:3e:d8:da:e5:1b:02:16:c1:1a:30:ec:c0:df:2d:
                    ed:ed:71:37:66:ac:39:8c:c7:19:08:c8:b4:89:8e:
                    f6:89:e4:2c:4c:9f:17:0c:f0:fd:82:7f:d8:a8:94:
                    64:1c:93:63:cd:13:2d:78:c6:9b:2f:34:dc:a5:10:
                    a5:36:85:8a:12:7c:21:03:e0:95:88:90:7a:9e:26:
                    ee:f0:02:8b:90:0f:b2:71:e5:b0:45:3a:eb:50:0c:
                    09:a7:d0:61:4a:35:24:93:74:f4:c4:0a:b4:a2:5d:
                    43:43:08:10:2f:4f:96:4e:59:0f
                Exponent: 65537 (0x10001)
        X509v3 extensions:
            X509v3 Basic Constraints: critical
                CA:TRUE, pathlen:1
            X509v3 Key Usage: critical
                Certificate Sign, CRL Sign
            X509v3 Subject Key Identifier: 
                2C:CF:E8:58:52:78:FA:3E:BA:51:72:57:25:3A:19:B4:AE:52:C9:34
    Signature Algorithm: sha256WithRSAEncryption
         74:37:cf:67:b4:56:d4:af:bb:d4:af:28:37:da:15:c8:eb:e3:
         60:85:2d:43:22:64:10:af:62:32:25:20:8c:1f:29:a2:ac:74:
         e0:23:d8:44:d8:b7:a7:58:04:6b:ed:37:f3:fd:0f:3f:02:ed:
         8e:c6:0f:ec:6d:3b:ed:54:70:fd:07:6f:4b:5e:8d:77:3b:45:
         e5:65:91:d8:0b:ed:a2:b9:e5:bf:79:00:d5:8e:1e:6a:db:1a:
         13:76:33:1d:e5:97:22:29:41:96:2b:fd:c6:87:dc:98:fd:04:
         47:ec:bd:16:3e:02:bc:24:d4:e2:6a:d5:1a:22:c3:59:20:f1:
         37:a9:4f:89:be:48:9e:e1:65:73:96:44:c3:dd:f3:55:4c:9a:
         20:47:73:dd:7e:25:60:24:77:94:bf:57:86:f1:79:e0:72:9f:
         f1:64:6e:56:4a:2c:7b:80:75:f0:bb:38:5d:80:56:ec:f3:8a:
         45:67:33:9b:26:d7:26:a9:8d:29:24:06:11:08:b1:e6:11:07:
         63:53:3c:77:91:cf:3a:70:ba:c6:66:df:3e:c6:c6:9b:07:eb:
         e9:ed:33:e5:86:30:a3:63:42:85:aa:b2:a4:df:22:27:54:de:
         ec:d7:45:11:d2:fb:d1:01:91:cf:84:f4:0c:3d:5a:2b:2b:7e:
         aa:88:a4:30:a5:63:2c:ac:6d:b2:46:11:12:52:6b:33:89:a0:
         46:eb:6b:1a:22:8f:9a:e2:f4:1e:d3:36:23:f2:d4:29:19:40:
         14:0e:e1:28:0a:07:32:93:37:15:7d:3c:ef:7d:36:7f:63:6b:
         de:d4:94:01:0f:23:0e:86:c8:c7:35:38:aa:57:be:9a:2f:a6:
         cc:1c:5f:33:6b:7e:9a:cb:a6:b6:9e:f5:d2:c4:08:99:c4:70:
         2b:16:22:65:01:aa:79:5d:6d:09:30:ff:ba:b6:6e:9d:04:6d:
         db:b1:dd:28:7c:5e:df:8a:0f:2c:91:c5:d8:27:b6:4a:81:81:
         65:48:7a:dc:6b:cb
-----BEGIN CERTIFICATE-----
MIIEgzCCAuugAwIBAgIQCrAASRjrcaQYLMHp1USvkzANBgkqhkiG9w0BAQsFADBZ
MSMwIQYDVQQKDBpTd2FwdGFjdWxhciBOb2RlcyBSZWdpc3RyeTEfMB0GA1UECwwW
QWNjb3VudGluZyBBdXRob3JpdGllczERMA8GA1UEBRMIMTIzNGFiY2QwIBcNMjMw
NjEyMTUzNzM2WhgPMzAyMjEwMTMxNTM3MzZaMFkxIzAhBgNVBAoMGlN3YXB0YWN1
bGFyIE5vZGVzIFJlZ2lzdHJ5MR8wHQYDVQQLDBZBY2NvdW50aW5nIEF1dGhvcml0
aWVzMREwDwYDVQQFEwgxMjM0YWJjZDCCAaIwDQYJKoZIhvcNAQEBBQADggGPADCC
AYoCggGBAKF2HggKySNpvvLblvqeBtH2tdkn/iMg0NdaDQfdx3jgEKldxqLcONSE
B9AYLyqY1tkaZfPVLJYWw7TcQTTOVeTMmLmLreZxB09bA4A0ByhMkS/r3ZlxB47f
jyppSgFaalPXTfMJ4pvDhiRqtxglu0Ym1JO1vS72JEGCNhOpNjdOjyDkvTvvKDn6
r3qNigZYas+s/IKNiwTp5uIAGLxbr8wkkGZqRjFkYMH9maTT2ZWdi/aL1wPg8+qx
NdND2XYcydLQ+PCT0+QssAIoXHnR4dKQhJ3Dv9dOs/TL03KNBgHCOqE4+nOuDiMZ
eH+o1riWxcOZ6k27OSKFM7UAvDUWFJSTEV9t8JzD8bLENIeLJj7Y2uUbAhbBGjDs
wN8t7e1xN2asOYzHGQjItImO9onkLEyfFwzw/YJ/2KiUZByTY80TLXjGmy803KUQ
pTaFihJ8IQPglYiQep4m7vACi5APsnHlsEU661AMCafQYUo1JJN09MQKtKJdQ0MI
EC9Plk5ZDwIDAQABo0UwQzASBgNVHRMBAf8ECDAGAQH/AgEBMA4GA1UdDwEB/wQE
AwIBBjAdBgNVHQ4EFgQULM/oWFJ4+j66UXJXJToZtK5SyTQwDQYJKoZIhvcNAQEL
BQADggGBAHQ3z2e0VtSvu9SvKDfaFcjr42CFLUMiZBCvYjIlIIwfKaKsdOAj2ETY
t6dYBGvtN/P9Dz8C7Y7GD+xtO+1UcP0Hb0tejXc7ReVlkdgL7aK55b95ANWOHmrb
GhN2Mx3llyIpQZYr/caH3Jj9BEfsvRY+Arwk1OJq1Roiw1kg8TepT4m+SJ7hZXOW
RMPd81VMmiBHc91+JWAkd5S/V4bxeeByn/FkblZKLHuAdfC7OF2AVuzzikVnM5sm
1yapjSkkBhEIseYRB2NTPHeRzzpwusZm3z7GxpsH6+ntM+WGMKNjQoWqsqTfIidU
3uzXRRHS+9EBkc+E9Aw9WisrfqqIpDClYyysbbJGERJSazOJoEbraxoij5ri9B7T
NiPy1CkZQBQO4SgKBzKTNxV9PO99Nn9ja97UlAEPIw6GyMc1OKpXvpovpswcXzNr
fprLprae9dLECJnEcCsWImUBqnldbQkw/7q2bp0Ebdux3Sh8Xt+KDyyRxdgntkqB
gWVIetxryw==
-----END CERTIFICATE-----
