Certificate:
    Data:
        Version: 3 (0x2)
        Serial Number:
            82:97:35:ac:ef:ac:f3:1a:37:09:6f:10:ca:25:db:a8
        Signature Algorithm: sha256WithRSAEncryption
        Issuer: O=Swaptacular Nodes Registry, OU=Creditors Agents/serialNumber=5921983fe0e6eb987aeedca54ad3c708
        Validity
            Not Before: Jun 11 17:40:54 2023 GMT
            Not After : Oct 12 17:40:54 3022 GMT
        Subject: O=Swaptacular Nodes Registry, OU=Creditors Agents/serialNumber=5921983fe0e6eb987aeedca54ad3c708
        Subject Public Key Info:
            Public Key Algorithm: rsaEncryption
                RSA Public-Key: (3072 bit)
                Modulus:
                    00:aa:57:a1:74:d4:54:9b:21:b6:96:16:ad:58:86:
                    6c:c7:b2:90:40:3d:4c:b8:11:56:06:1c:e5:f9:44:
                    66:38:2d:33:b1:c8:21:1d:62:56:d6:9a:6c:4b:7f:
                    3a:3f:eb:29:0b:e4:d8:ca:66:a9:0e:71:c0:26:61:
                    57:d8:5d:ef:29:10:6a:71:73:db:60:14:09:b6:31:
                    82:44:d6:06:1f:c9:3c:c6:92:66:e5:9d:f6:01:30:
                    7c:71:3f:29:38:d6:90:de:34:e4:e3:c8:20:f6:40:
                    c1:d4:8a:2f:52:4f:c2:5f:cd:5d:6d:4b:0c:27:83:
                    e3:5b:59:a2:45:08:a7:a5:60:2e:e9:bc:cf:0b:0c:
                    72:41:4f:24:1c:d5:23:ea:3d:cc:64:24:15:c2:ac:
                    c7:c6:4f:6f:fe:41:7b:89:bd:32:5f:8c:29:7c:f2:
                    61:29:76:ee:63:bb:ab:47:22:3a:52:08:d7:f3:83:
                    60:4a:a9:10:70:48:3b:71:d0:bb:80:42:c8:06:b7:
                    03:3b:76:35:72:45:53:12:04:f6:a3:50:8e:d0:fd:
                    83:07:e0:1a:2e:dc:04:e4:85:b8:0f:a7:f1:52:4c:
                    7e:8a:a8:af:da:57:c3:2b:3e:2b:74:db:78:d9:a9:
                    62:f8:57:d9:c8:bd:df:93:00:8e:de:ea:3e:db:82:
                    59:56:af:44:d9:d2:1b:c9:46:5a:d2:8b:a7:fb:66:
                    84:e9:9f:9d:0e:eb:22:25:22:87:5a:03:c5:35:be:
                    aa:89:69:b8:f6:25:14:c8:c6:88:ac:28:ab:f4:60:
                    f8:28:8d:bc:99:5a:dc:d7:16:2e:96:1c:44:e9:d6:
                    9b:ff:30:6c:a7:2e:84:77:23:ba:f9:cf:14:19:d5:
                    d6:80:e3:53:fc:d2:38:2b:ef:ad:d6:3e:bb:f8:be:
                    66:9a:4c:a7:f2:01:ca:e6:31:e8:ab:7f:b7:75:8b:
                    7d:4e:97:79:f8:1f:55:c0:cf:d1:77:9e:9c:2b:6a:
                    50:5f:75:ee:22:89:3b:98:26:21
                Exponent: 65537 (0x10001)
        X509v3 extensions:
            X509v3 Basic Constraints: critical
                CA:TRUE, pathlen:1
            X509v3 Key Usage: critical
                Certificate Sign, CRL Sign
            X509v3 Subject Key Identifier: 
                D4:61:BE:5D:A3:AF:A1:38:80:89:2E:81:A0:91:4E:C2:CD:82:13:E5
    Signature Algorithm: sha256WithRSAEncryption
         a6:d3:a0:9c:ca:9e:4d:6c:40:19:ff:29:da:7a:88:5f:da:33:
         ba:a4:2a:40:0e:fb:3e:06:2e:1f:f3:64:c3:06:2f:5a:aa:18:
         9c:a4:ed:b7:9f:15:0a:7b:45:46:11:4e:f1:a7:03:4b:b0:f9:
         be:30:4e:ca:dd:ff:fb:8e:70:79:d6:89:82:46:fe:ea:8f:9c:
         f0:fe:a3:df:cb:92:e4:40:be:ed:6b:c2:c1:36:00:5a:66:7c:
         a0:d4:12:6a:e8:38:91:a5:a4:34:19:d0:b6:2b:ec:db:df:09:
         54:3d:00:01:e0:77:59:d6:3e:e2:58:0c:e2:6b:34:db:ed:64:
         16:3a:d2:11:40:0f:f4:be:80:b3:de:31:62:1b:7e:4b:1a:2a:
         ab:65:08:79:b1:46:c7:04:34:7a:6e:94:a3:11:69:a5:bc:24:
         17:92:60:19:da:25:05:cc:8e:65:ef:10:ac:55:79:0f:22:2f:
         0a:cd:8f:75:0e:0b:97:0f:2a:db:2a:0d:bc:4e:5d:be:a6:dd:
         3d:6b:14:2a:5d:67:31:31:0a:16:1d:9a:2c:9b:ef:c0:9e:c4:
         47:2f:f3:11:0f:79:17:9d:f5:0f:7d:e4:77:95:5c:da:88:3f:
         ab:10:e4:ed:2d:7b:b3:86:5d:cb:ef:d1:6a:a8:d0:d0:9a:7f:
         f3:89:30:5f:fe:d8:03:3f:d0:89:cc:51:b5:3b:19:59:6b:c5:
         84:0f:86:c8:91:7d:1c:9e:55:31:a3:2e:e0:3a:df:1e:44:8d:
         55:54:0f:f3:70:cb:69:e0:4c:f5:2b:43:1f:6f:9f:95:67:fb:
         af:3e:04:0a:a1:14:f4:3e:a2:7f:d6:d8:5a:c4:48:9d:ec:40:
         f8:6e:73:4d:ae:1b:e4:c7:f9:90:48:8e:6b:42:1e:7d:f3:65:
         78:a0:b8:04:a3:07:25:bb:5b:25:cd:56:6d:d5:fe:b7:a7:e9:
         f7:af:bc:03:5b:f5:8b:d8:16:c6:83:d4:53:e7:95:1d:b9:03:
         3b:4a:cb:d7:0c:7b
-----BEGIN CERTIFICATE-----
MIIEqDCCAxCgAwIBAgIRAIKXNazvrPMaNwlvEMol26gwDQYJKoZIhvcNAQELBQAw
azEjMCEGA1UECgwaU3dhcHRhY3VsYXIgTm9kZXMgUmVnaXN0cnkxGTAXBgNVBAsM
EENyZWRpdG9ycyBBZ2VudHMxKTAnBgNVBAUTIDU5MjE5ODNmZTBlNmViOTg3YWVl
ZGNhNTRhZDNjNzA4MCAXDTIzMDYxMTE3NDA1NFoYDzMwMjIxMDEyMTc0MDU0WjBr
MSMwIQYDVQQKDBpTd2FwdGFjdWxhciBOb2RlcyBSZWdpc3RyeTEZMBcGA1UECwwQ
Q3JlZGl0b3JzIEFnZW50czEpMCcGA1UEBRMgNTkyMTk4M2ZlMGU2ZWI5ODdhZWVk
Y2E1NGFkM2M3MDgwggGiMA0GCSqGSIb3DQEBAQUAA4IBjwAwggGKAoIBgQCqV6F0
1FSbIbaWFq1YhmzHspBAPUy4EVYGHOX5RGY4LTOxyCEdYlbWmmxLfzo/6ykL5NjK
ZqkOccAmYVfYXe8pEGpxc9tgFAm2MYJE1gYfyTzGkmblnfYBMHxxPyk41pDeNOTj
yCD2QMHUii9ST8JfzV1tSwwng+NbWaJFCKelYC7pvM8LDHJBTyQc1SPqPcxkJBXC
rMfGT2/+QXuJvTJfjCl88mEpdu5ju6tHIjpSCNfzg2BKqRBwSDtx0LuAQsgGtwM7
djVyRVMSBPajUI7Q/YMH4Bou3ATkhbgPp/FSTH6KqK/aV8MrPit023jZqWL4V9nI
vd+TAI7e6j7bgllWr0TZ0hvJRlrSi6f7ZoTpn50O6yIlIodaA8U1vqqJabj2JRTI
xoisKKv0YPgojbyZWtzXFi6WHETp1pv/MGynLoR3I7r5zxQZ1daA41P80jgr763W
Prv4vmaaTKfyAcrmMeirf7d1i31Ol3n4H1XAz9F3npwralBfde4iiTuYJiECAwEA
AaNFMEMwEgYDVR0TAQH/BAgwBgEB/wIBATAOBgNVHQ8BAf8EBAMCAQYwHQYDVR0O
BBYEFNRhvl2jr6E4gIkugaCRTsLNghPlMA0GCSqGSIb3DQEBCwUAA4IBgQCm06Cc
yp5NbEAZ/ynaeohf2jO6pCpADvs+Bi4f82TDBi9aqhicpO23nxUKe0VGEU7xpwNL
sPm+ME7K3f/7jnB51omCRv7qj5zw/qPfy5LkQL7ta8LBNgBaZnyg1BJq6DiRpaQ0
GdC2K+zb3wlUPQAB4HdZ1j7iWAziazTb7WQWOtIRQA/0voCz3jFiG35LGiqrZQh5
sUbHBDR6bpSjEWmlvCQXkmAZ2iUFzI5l7xCsVXkPIi8KzY91DguXDyrbKg28Tl2+
pt09axQqXWcxMQoWHZosm+/AnsRHL/MRD3kXnfUPfeR3lVzaiD+rEOTtLXuzhl3L
79FqqNDQmn/ziTBf/tgDP9CJzFG1OxlZa8WED4bIkX0cnlUxoy7gOt8eRI1VVA/z
cMtp4Ez1K0Mfb5+VZ/uvPgQKoRT0PqJ/1thaxEid7ED4bnNNrhvkx/mQSI5rQh59
82V4oLgEowclu1slzVZt1f63p+n3r7wDW/WL2BbGg9RT55UduQM7SsvXDHs=
-----END CERTIFICATE-----
