Certificate:
    Data:
        Version: 3 (0x2)
        Serial Number:
            5c:95:f6:a8:79:e5:2e:6c:30:30:54:51:b6:ca:56:1b
        Signature Algorithm: sha256WithRSAEncryption
        Issuer: O=Swaptacular Nodes Registry, OU=Debtors Agents/serialNumber=060791aeca7637fa3357dfc0299fb4c5
        Validity
            Not Before: Jun 14 17:41:44 2023 GMT
            Not After : Jun 13 17:41:44 2024 GMT
        Subject: O=Swaptacular Nodes Registry, OU=Debtors Agents/serialNumber=060791aeca7637fa3357dfc0299fb4c5
        Subject Public Key Info:
            Public Key Algorithm: rsaEncryption
                RSA Public-Key: (3072 bit)
                Modulus:
                    00:c6:ed:d9:48:8f:0b:b7:68:4a:33:e8:fb:e2:67:
                    80:de:ce:2f:62:e2:17:2f:92:c6:1a:14:be:ac:5e:
                    05:6b:9f:c8:73:e3:4b:5e:03:61:9b:fb:65:89:6c:
                    12:1e:50:62:89:9f:64:52:13:4f:43:6b:05:d5:fa:
                    f7:ec:4f:2d:f0:a6:ea:e3:3a:95:d4:5a:d0:56:2b:
                    53:7d:dd:13:83:0c:08:f2:18:3f:6c:1e:84:f1:52:
                    a7:f7:86:4b:03:bb:6e:ab:9e:6c:47:ec:cd:4f:c6:
                    01:88:5b:e8:ce:e3:50:aa:e4:19:2e:21:49:c9:9a:
                    bb:1b:0a:84:95:b0:b3:6e:ec:33:ae:64:fb:ee:97:
                    6a:9b:fc:f9:a9:b7:d8:d7:38:bc:26:de:c0:23:f6:
                    cb:76:e8:8b:25:12:b0:9d:e1:54:e7:ea:d1:2c:64:
                    98:a5:07:d1:59:f6:eb:61:81:2a:3b:4d:9a:e8:10:
                    34:b5:f0:e1:57:19:58:e8:a9:ef:e7:cd:4e:61:05:
                    f6:d8:76:b6:1a:c8:34:cc:8d:5b:f8:94:b7:04:f1:
                    4f:2f:c8:dc:c3:2b:a6:21:c6:bd:b4:f4:51:20:78:
                    c0:0b:71:3d:50:29:fa:67:db:3c:79:17:4c:b8:0d:
                    b1:72:89:ba:2f:f4:49:89:b7:51:b9:6c:0a:b4:90:
                    03:be:a7:3e:ab:f1:5a:c5:dc:e6:59:53:07:1f:fa:
                    a6:63:7b:e5:bd:0b:8a:af:21:0c:b3:16:2f:38:d9:
                    60:42:4f:20:37:88:cd:c4:de:b8:79:f6:1c:e4:0c:
                    ae:07:b7:2f:da:af:f0:1d:1a:8a:ad:dd:55:94:12:
                    50:67:6c:6b:05:e3:6f:84:3e:99:03:d7:7d:78:d5:
                    89:4c:cb:a3:9f:7a:2f:00:34:af:59:a7:86:b5:8a:
                    56:f7:b6:8f:fe:6c:00:17:11:2a:db:6f:e2:ac:e9:
                    a9:d4:d4:6b:d6:90:6a:72:33:cb:94:b1:83:57:82:
                    dc:08:76:57:73:7b:75:e3:57:53
                Exponent: 65537 (0x10001)
        X509v3 extensions:
            X509v3 Authority Key Identifier: 
                keyid:FD:9D:C5:68:67:F8:56:08:8F:BC:E9:EF:2A:68:01:C4:D1:98:AB:01

            X509v3 Basic Constraints: critical
                CA:FALSE
            X509v3 Extended Key Usage: 
                TLS Web Client Authentication, TLS Web Server Authentication
            X509v3 Key Usage: critical
                Digital Signature, Key Encipherment
            X509v3 Subject Key Identifier: 
                9C:7F:D4:A6:7A:36:B4:D7:20:8E:5D:14:E0:2B:49:99:93:EE:81:BA
    Signature Algorithm: sha256WithRSAEncryption
         80:99:fc:17:22:f1:80:09:31:23:aa:12:0f:10:a2:42:98:d4:
         5b:e6:17:c8:f2:77:77:26:3a:cb:b0:10:68:d2:d6:d1:58:3d:
         af:7c:c7:01:71:02:bd:65:bb:12:b6:8b:08:03:12:6e:4f:c1:
         e2:2c:df:54:5f:ca:ec:05:47:22:68:1e:a7:38:67:94:c6:1a:
         47:91:3e:65:02:2c:08:f3:63:66:2e:d4:17:72:67:63:6b:0a:
         6c:8c:ac:32:45:b0:0b:3d:81:05:35:12:95:fc:5b:91:d7:a7:
         24:7e:d4:31:5a:61:44:d0:ca:86:7b:bc:85:23:7f:07:f2:25:
         80:04:26:24:b8:c1:7f:78:8a:f6:3d:db:c2:7e:7a:9c:56:88:
         31:12:a0:0e:0b:89:16:8f:84:16:d6:ec:bc:0f:b0:b2:a0:0c:
         47:aa:38:d6:bb:b2:a7:6b:3b:b4:f4:25:b8:ae:02:97:a3:6b:
         ad:f1:cc:51:73:a0:31:3c:b0:a7:ac:29:73:12:0c:24:8e:0d:
         eb:bc:ca:c0:0c:b9:3d:c6:b3:d3:c4:3f:b1:97:1b:3c:e5:12:
         29:44:c3:dd:6f:02:69:19:86:ce:27:52:54:f4:61:a0:bc:fe:
         fe:e0:2d:32:9e:54:9b:db:65:2d:e0:62:98:72:72:bb:b5:f6:
         45:79:fd:12:0f:92:3f:f2:aa:4a:42:86:1f:32:53:09:7b:45:
         fb:9b:38:9c:f6:aa:38:00:15:fb:dd:dc:81:d2:15:39:3e:34:
         da:e6:3c:bd:d9:57:f1:d9:c0:34:cf:29:40:32:03:b3:e8:7b:
         59:59:85:37:67:5b:9f:a1:48:32:a5:0e:f7:6f:cd:16:7b:60:
         5f:54:25:ee:d5:c2:ef:3b:b5:58:cc:e8:74:84:c6:84:8b:a5:
         a1:d1:69:c3:d8:ba:79:2e:e5:60:1c:5b:e3:c2:b6:f2:f3:23:
         7e:21:cd:52:15:37:84:64:ad:11:47:29:6d:c2:1e:15:89:6e:
         85:53:ed:1b:14:67
-----BEGIN CERTIFICATE-----
MIIE2zCCA0OgAwIBAgIQXJX2qHnlLmwwMFRRtspWGzANBgkqhkiG9w0BAQsFADBp
MSMwIQYDVQQKDBpTd2FwdGFjdWxhciBOb2RlcyBSZWdpc3RyeTEXMBUGA1UECwwO
RGVidG9ycyBBZ2VudHMxKTAnBgNVBAUTIDA2MDc5MWFlY2E3NjM3ZmEzMzU3ZGZj
MDI5OWZiNGM1MB4XDTIzMDYxNDE3NDE0NFoXDTI0MDYxMzE3NDE0NFowaTEjMCEG
A1UECgwaU3dhcHRhY3VsYXIgTm9kZXMgUmVnaXN0cnkxFzAVBgNVBAsMDkRlYnRv
cnMgQWdlbnRzMSkwJwYDVQQFEyAwNjA3OTFhZWNhNzYzN2ZhMzM1N2RmYzAyOTlm
YjRjNTCCAaIwDQYJKoZIhvcNAQEBBQADggGPADCCAYoCggGBAMbt2UiPC7doSjPo
++JngN7OL2LiFy+SxhoUvqxeBWufyHPjS14DYZv7ZYlsEh5QYomfZFITT0NrBdX6
9+xPLfCm6uM6ldRa0FYrU33dE4MMCPIYP2wehPFSp/eGSwO7bquebEfszU/GAYhb
6M7jUKrkGS4hScmauxsKhJWws27sM65k++6Xapv8+am32Nc4vCbewCP2y3boiyUS
sJ3hVOfq0SxkmKUH0Vn262GBKjtNmugQNLXw4VcZWOip7+fNTmEF9th2thrINMyN
W/iUtwTxTy/I3MMrpiHGvbT0USB4wAtxPVAp+mfbPHkXTLgNsXKJui/0SYm3Ubls
CrSQA76nPqvxWsXc5llTBx/6pmN75b0Liq8hDLMWLzjZYEJPIDeIzcTeuHn2HOQM
rge3L9qv8B0aiq3dVZQSUGdsawXjb4Q+mQPXfXjViUzLo596LwA0r1mnhrWKVve2
j/5sABcRKttv4qzpqdTUa9aQanIzy5Sxg1eC3Ah2V3N7deNXUwIDAQABo38wfTAf
BgNVHSMEGDAWgBT9ncVoZ/hWCI+86e8qaAHE0ZirATAMBgNVHRMBAf8EAjAAMB0G
A1UdJQQWMBQGCCsGAQUFBwMCBggrBgEFBQcDATAOBgNVHQ8BAf8EBAMCBaAwHQYD
VR0OBBYEFJx/1KZ6NrTXII5dFOArSZmT7oG6MA0GCSqGSIb3DQEBCwUAA4IBgQCA
mfwXIvGACTEjqhIPEKJCmNRb5hfI8nd3JjrLsBBo0tbRWD2vfMcBcQK9ZbsStosI
AxJuT8HiLN9UX8rsBUciaB6nOGeUxhpHkT5lAiwI82NmLtQXcmdjawpsjKwyRbAL
PYEFNRKV/FuR16ckftQxWmFE0MqGe7yFI38H8iWABCYkuMF/eIr2PdvCfnqcVogx
EqAOC4kWj4QW1uy8D7CyoAxHqjjWu7Knazu09CW4rgKXo2ut8cxRc6AxPLCnrClz
Egwkjg3rvMrADLk9xrPTxD+xlxs85RIpRMPdbwJpGYbOJ1JU9GGgvP7+4C0ynlSb
22Ut4GKYcnK7tfZFef0SD5I/8qpKQoYfMlMJe0X7mzic9qo4ABX73dyB0hU5PjTa
5jy92Vfx2cA0zylAMgOz6HtZWYU3Z1ufoUgypQ73b80We2BfVCXu1cLvO7VYzOh0
hMaEi6Wh0WnD2Lp5LuVgHFvjwrby8yN+Ic1SFTeEZK0RRyltwh4ViW6FU+0bFGc=
-----END CERTIFICATE-----
