Certificate:
    Data:
        Version: 3 (0x2)
        Serial Number:
            5c:95:f6:a8:79:e5:2e:6c:30:30:54:51:b6:ca:56:1c
        Signature Algorithm: sha256WithRSAEncryption
        Issuer: O=Swaptacular Nodes Registry, OU=Debtors Agents/serialNumber=060791aeca7637fa3357dfc0299fb4c5
        Validity
            Not Before: Jul 26 14:08:21 2023 GMT
            Not After : Jul  2 14:08:21 2123 GMT
        Subject: O=Swaptacular Nodes Registry, OU=Debtors Agents/serialNumber=060791aeca7637fa3357dfc0299fb4c5
        Subject Public Key Info:
            Public Key Algorithm: rsaEncryption
                RSA Public-Key: (3072 bit)
                Modulus:
                    00:a4:ff:38:2f:75:41:45:99:bc:fd:35:c1:0d:18:
                    d7:58:cf:51:95:09:9f:09:48:f2:de:f4:dd:0f:01:
                    47:b7:4d:6f:6e:47:dd:c7:c8:b7:27:73:08:34:f1:
                    b3:3f:ad:ec:e1:08:57:ef:9d:a6:b2:41:64:fb:da:
                    94:0c:da:c3:41:77:99:70:c4:f9:be:aa:c0:b2:25:
                    33:84:b8:40:b6:7f:27:cd:f5:07:b8:c2:f4:74:5b:
                    1c:c2:f9:c5:d3:11:03:16:91:c3:24:57:af:2a:de:
                    d1:10:5c:b1:e1:db:32:9a:06:64:f1:84:9f:04:47:
                    43:1e:f6:29:9c:ef:aa:7a:d6:74:42:5f:c4:0f:d2:
                    58:27:8d:ea:e3:69:a5:55:ed:ec:88:6b:83:c9:88:
                    b1:00:c8:70:61:89:05:62:17:eb:ef:bf:b9:21:84:
                    a2:50:00:36:9f:cf:64:87:05:38:bd:1d:42:93:02:
                    64:26:bc:05:3b:4f:49:7e:ec:94:1b:74:d6:a1:a5:
                    75:a7:9a:6c:8f:96:a7:70:19:59:02:77:98:b3:34:
                    c8:f1:17:e3:14:d4:1e:17:7b:43:75:62:bb:34:1d:
                    9b:86:9e:07:e2:e6:82:87:81:04:ce:d9:7f:60:e5:
                    ee:b8:64:9a:15:05:ff:86:61:af:c8:1e:66:29:e4:
                    9c:84:e4:9c:2c:cd:3d:48:eb:f4:fd:c1:62:85:66:
                    aa:88:83:39:00:e7:5c:7a:55:7f:54:ab:21:89:ea:
                    6f:51:2b:4e:f9:2b:97:fc:fa:f9:12:3c:a8:eb:14:
                    38:69:58:64:e8:38:64:23:cd:6e:3e:a6:3f:3a:b1:
                    c3:86:3a:7b:28:2b:8f:a2:4d:29:15:f9:ce:76:df:
                    3d:7a:c2:67:df:3d:77:fa:c4:88:45:e2:e5:aa:32:
                    d3:53:f8:cd:6b:e2:c1:b3:b1:80:8d:10:23:d1:ef:
                    7f:f7:c5:17:10:3b:59:14:85:e9:3e:da:ce:1e:18:
                    3b:f8:32:95:0e:da:51:08:cd:8b
                Exponent: 65537 (0x10001)
        X509v3 extensions:
            X509v3 Authority Key Identifier: 
                keyid:FD:9D:C5:68:67:F8:56:08:8F:BC:E9:EF:2A:68:01:C4:D1:98:AB:01

            X509v3 Basic Constraints: critical
                CA:FALSE
            X509v3 Extended Key Usage: 
                TLS Web Client Authentication, TLS Web Server Authentication
            X509v3 Key Usage: critical
                Digital Signature, Key Encipherment
            X509v3 Subject Key Identifier: 
                2D:20:06:84:1C:FE:9A:43:9B:A1:F2:10:62:8A:96:52:51:65:59:06
    Signature Algorithm: sha256WithRSAEncryption
         ae:4b:94:fe:ec:2b:8e:17:24:f1:fc:60:76:af:91:9f:e8:24:
         8f:c8:6c:ba:de:81:6d:60:44:38:a5:a4:4b:b5:aa:7d:d9:77:
         e2:b4:72:fa:7a:00:e8:75:24:a5:5d:f8:5a:83:4a:de:27:fd:
         a0:53:8b:ce:1a:d9:55:91:86:a5:c5:ea:05:bb:7e:f8:1e:83:
         5c:38:e6:21:a2:b9:53:9c:51:7f:ae:15:dd:a6:26:ef:46:9b:
         39:37:b8:43:10:5f:e6:9b:4a:a2:11:ca:2d:9e:f9:31:7c:82:
         ec:b2:e2:47:82:8a:ce:19:af:3a:eb:73:de:e0:11:74:e1:1d:
         3b:80:a3:38:78:dc:08:c1:5d:89:a0:94:17:0e:1c:41:2b:92:
         0e:3f:d0:ca:e0:9e:e0:df:33:c1:ff:c6:36:be:27:a6:85:fe:
         8b:a2:35:28:2a:12:a2:24:1b:29:cb:7d:c7:0e:13:0a:f5:94:
         7b:ed:7a:a4:eb:79:76:84:4f:88:ff:ef:cd:1f:03:63:a6:e8:
         a9:4d:f8:18:11:27:3d:1c:a9:fc:96:e3:93:1a:2f:5d:95:d9:
         54:17:d7:d6:56:df:79:9e:7a:97:2a:07:c0:88:c2:c9:1b:52:
         9a:7d:92:59:93:cf:de:22:cb:2d:4e:02:8c:b5:a1:fc:51:d1:
         3f:0e:72:84:0e:03:a8:11:04:fe:1f:64:9c:2b:d9:9e:80:3a:
         40:81:88:6a:77:8b:9d:94:29:a1:ea:32:a4:c7:5b:38:43:10:
         86:78:97:66:86:87:c0:ba:0d:ed:d6:be:c5:b4:c3:7a:81:02:
         4d:da:97:8b:70:2e:13:14:f2:6e:83:c8:30:a7:09:e1:24:ef:
         09:58:04:a0:88:8d:70:df:18:81:ee:8c:9d:0e:b8:c1:1b:71:
         97:84:e8:eb:e9:dd:1a:88:b0:19:bd:7a:5a:49:e7:82:4c:7e:
         3d:0d:25:41:05:58:03:4a:80:01:bd:8f:9c:b8:31:15:37:e2:
         67:f5:36:68:fd:3b
-----BEGIN CERTIFICATE-----
MIIE3TCCA0WgAwIBAgIQXJX2qHnlLmwwMFRRtspWHDANBgkqhkiG9w0BAQsFADBp
MSMwIQYDVQQKDBpTd2FwdGFjdWxhciBOb2RlcyBSZWdpc3RyeTEXMBUGA1UECwwO
RGVidG9ycyBBZ2VudHMxKTAnBgNVBAUTIDA2MDc5MWFlY2E3NjM3ZmEzMzU3ZGZj
MDI5OWZiNGM1MCAXDTIzMDcyNjE0MDgyMVoYDzIxMjMwNzAyMTQwODIxWjBpMSMw
IQYDVQQKDBpTd2FwdGFjdWxhciBOb2RlcyBSZWdpc3RyeTEXMBUGA1UECwwORGVi
dG9ycyBBZ2VudHMxKTAnBgNVBAUTIDA2MDc5MWFlY2E3NjM3ZmEzMzU3ZGZjMDI5
OWZiNGM1MIIBojANBgkqhkiG9w0BAQEFAAOCAY8AMIIBigKCAYEApP84L3VBRZm8
/TXBDRjXWM9RlQmfCUjy3vTdDwFHt01vbkfdx8i3J3MINPGzP63s4QhX752mskFk
+9qUDNrDQXeZcMT5vqrAsiUzhLhAtn8nzfUHuML0dFscwvnF0xEDFpHDJFevKt7R
EFyx4dsymgZk8YSfBEdDHvYpnO+qetZ0Ql/ED9JYJ43q42mlVe3siGuDyYixAMhw
YYkFYhfr77+5IYSiUAA2n89khwU4vR1CkwJkJrwFO09JfuyUG3TWoaV1p5psj5an
cBlZAneYszTI8RfjFNQeF3tDdWK7NB2bhp4H4uaCh4EEztl/YOXuuGSaFQX/hmGv
yB5mKeSchOScLM09SOv0/cFihWaqiIM5AOdcelV/VKshiepvUStO+SuX/Pr5Ejyo
6xQ4aVhk6DhkI81uPqY/OrHDhjp7KCuPok0pFfnOdt89esJn3z13+sSIReLlqjLT
U/jNa+LBs7GAjRAj0e9/98UXEDtZFIXpPtrOHhg7+DKVDtpRCM2LAgMBAAGjfzB9
MB8GA1UdIwQYMBaAFP2dxWhn+FYIj7zp7ypoAcTRmKsBMAwGA1UdEwEB/wQCMAAw
HQYDVR0lBBYwFAYIKwYBBQUHAwIGCCsGAQUFBwMBMA4GA1UdDwEB/wQEAwIFoDAd
BgNVHQ4EFgQULSAGhBz+mkObofIQYoqWUlFlWQYwDQYJKoZIhvcNAQELBQADggGB
AK5LlP7sK44XJPH8YHavkZ/oJI/IbLregW1gRDilpEu1qn3Zd+K0cvp6AOh1JKVd
+FqDSt4n/aBTi84a2VWRhqXF6gW7fvgeg1w45iGiuVOcUX+uFd2mJu9Gmzk3uEMQ
X+abSqIRyi2e+TF8guyy4keCis4Zrzrrc97gEXThHTuAozh43AjBXYmglBcOHEEr
kg4/0MrgnuDfM8H/xja+J6aF/ouiNSgqEqIkGynLfccOEwr1lHvteqTreXaET4j/
780fA2Om6KlN+BgRJz0cqfyW45MaL12V2VQX19ZW33meepcqB8CIwskbUpp9klmT
z94iyy1OAoy1ofxR0T8OcoQOA6gRBP4fZJwr2Z6AOkCBiGp3i52UKaHqMqTHWzhD
EIZ4l2aGh8C6De3WvsW0w3qBAk3al4twLhMU8m6DyDCnCeEk7wlYBKCIjXDfGIHu
jJ0OuMEbcZeE6Ovp3RqIsBm9elpJ54JMfj0NJUEFWANKgAG9j5y4MRU34mf1Nmj9
Ow==
-----END CERTIFICATE-----
