Certificate:
    Data:
        Version: 3 (0x2)
        Serial Number:
            0a:b0:00:49:18:eb:71:a4:18:2c:c1:e9:d5:44:af:97
        Signature Algorithm: sha256WithRSAEncryption
        Issuer: O=Swaptacular Nodes Registry, OU=Accounting Authorities/serialNumber=1234abcd
        Validity
            Not Before: Jul 26 14:06:15 2023 GMT
            Not After : Jul  2 14:06:15 2123 GMT
        Subject: O=Swaptacular Nodes Registry, OU=Accounting Authorities/serialNumber=1234abcd
        Subject Public Key Info:
            Public Key Algorithm: rsaEncryption
                RSA Public-Key: (3072 bit)
                Modulus:
                    00:c1:d3:78:eb:ec:de:0b:96:70:e8:58:ac:88:fc:
                    e9:5c:81:8a:4e:c0:6b:96:30:8e:ee:80:8e:2a:ab:
                    a2:7e:f3:32:49:d0:af:9a:03:30:a7:5c:0c:59:95:
                    83:f9:b2:17:c2:de:5f:d9:f6:01:58:7b:37:ce:c2:
                    3a:9e:d4:36:0f:4d:6a:24:d0:bd:e1:6d:f3:9a:0a:
                    42:f8:86:f8:6b:b6:92:51:b1:c1:d2:ff:02:32:fc:
                    28:96:ee:9d:79:ee:97:05:bf:36:73:de:7b:5a:f8:
                    22:5c:20:77:3e:24:20:89:0f:43:e3:8b:df:63:21:
                    c9:95:a9:db:1f:2f:3f:fa:1d:e1:9b:86:27:06:b5:
                    7f:db:42:d9:24:4b:64:ff:a7:15:0c:9c:70:21:96:
                    55:27:66:a9:fa:2f:cd:3c:0a:b6:6d:e6:59:98:4b:
                    56:de:b3:36:8c:4e:1b:ed:ea:c3:18:1b:95:bf:24:
                    de:5e:7d:87:d1:c1:b8:7c:33:78:39:b4:a9:5c:45:
                    d3:06:bf:60:29:10:31:7d:ca:c6:ae:44:90:7f:21:
                    e5:d8:14:48:0f:59:78:df:f2:fb:86:32:b1:95:ab:
                    96:23:df:8d:0a:08:e9:a1:e0:40:6f:2a:37:67:1e:
                    2d:8f:aa:8e:b2:02:a2:e8:22:6c:94:7f:e3:58:c9:
                    88:c8:99:bf:09:82:ec:08:ef:3b:70:cb:80:a3:0e:
                    d9:3b:fb:bf:12:76:26:e8:00:e6:6d:a4:08:48:33:
                    c9:09:9e:c2:f0:35:ce:67:79:5f:0f:d7:43:4c:81:
                    40:aa:86:cd:57:8e:a2:88:fa:e5:d0:1e:75:59:0c:
                    a0:15:60:49:70:3b:65:75:22:b6:a3:6c:c7:a8:7e:
                    93:23:03:3a:7b:ca:80:08:f6:ae:2b:8d:6c:7e:44:
                    ee:f4:cd:98:d0:15:83:4f:90:e8:f3:56:3f:f3:5c:
                    c3:4c:a5:52:24:6f:2e:48:9e:65:ef:19:f2:a3:01:
                    1d:ef:04:61:7a:0b:d8:c5:00:1d
                Exponent: 65537 (0x10001)
        X509v3 extensions:
            X509v3 Authority Key Identifier: 
                keyid:2C:CF:E8:58:52:78:FA:3E:BA:51:72:57:25:3A:19:B4:AE:52:C9:34

            X509v3 Basic Constraints: critical
                CA:FALSE
            X509v3 Extended Key Usage: 
                TLS Web Client Authentication, TLS Web Server Authentication
            X509v3 Key Usage: critical
                Digital Signature, Key Encipherment
            X509v3 Subject Key Identifier: 
                31:CA:9F:A9:D2:47:78:96:9F:B9:23:4A:FF:BE:2E:74:32:B4:B1:AA
    Signature Algorithm: sha256WithRSAEncryption
         97:d1:e1:b8:c1:eb:5e:d7:b3:94:f2:78:fd:93:64:9d:0b:fe:
         83:ec:6d:ad:75:b4:2e:9b:94:8a:13:60:4c:1e:33:ed:75:d7:
         cc:8f:1d:e5:a1:80:e7:fb:27:01:ef:da:70:7d:30:b3:ea:c4:
         40:f3:11:77:dd:40:7c:1b:28:67:ba:d7:bc:d5:23:23:9c:f3:
         72:7a:ef:48:65:ab:ff:86:71:7a:f1:8c:c4:4c:86:f9:0d:a6:
         d0:d9:5c:c9:69:bf:02:28:9e:d0:c6:6e:ee:bb:d7:a1:0d:2e:
         36:2c:11:26:48:0e:38:3e:8c:f9:d0:82:22:8d:43:71:dd:47:
         e1:2f:1d:82:9f:57:4f:4a:d4:7a:2b:21:ca:5c:a2:26:4d:c1:
         ce:a6:68:55:79:9d:57:18:38:41:2b:7f:4b:63:a4:1e:12:b0:
         8b:02:fc:92:28:e6:da:0c:96:2a:fc:02:a9:3a:ca:e9:40:78:
         56:74:a8:4f:b7:7e:40:72:ac:39:3e:bb:df:34:b5:35:5b:ca:
         73:33:f5:eb:b4:07:c9:0f:88:8b:df:b3:d3:15:cb:38:ac:30:
         30:cf:f9:03:9d:30:4a:d6:58:5c:24:e1:cc:b1:6d:94:76:c3:
         6f:05:c5:d1:74:f9:da:fc:40:61:7d:a3:90:1e:7b:40:b0:e8:
         db:d7:7f:d8:3b:c8:ee:ac:07:5b:2f:4f:eb:1f:2c:f6:89:7c:
         4c:c9:46:3f:cb:71:36:cf:60:fb:62:b3:e4:c0:a3:1a:01:dc:
         e6:3f:22:29:e1:3c:c9:98:4d:b3:30:31:9a:70:75:85:fe:6e:
         fc:72:d4:5d:32:cc:f6:ac:fc:6f:4f:94:9c:28:7b:59:e8:f1:
         85:e5:29:09:2f:06:0e:00:3e:fa:a3:ca:5a:ec:e2:df:e3:7e:
         7f:21:e2:39:2b:47:d0:05:33:2f:77:38:e5:1b:33:8b:c0:89:
         20:4c:b5:45:da:06:b6:c3:b3:ce:0b:5e:c9:68:ef:91:dd:53:
         e3:4a:65:7d:07:79
-----BEGIN CERTIFICATE-----
MIIEvTCCAyWgAwIBAgIQCrAASRjrcaQYLMHp1USvlzANBgkqhkiG9w0BAQsFADBZ
MSMwIQYDVQQKDBpTd2FwdGFjdWxhciBOb2RlcyBSZWdpc3RyeTEfMB0GA1UECwwW
QWNjb3VudGluZyBBdXRob3JpdGllczERMA8GA1UEBRMIMTIzNGFiY2QwIBcNMjMw
NzI2MTQwNjE1WhgPMjEyMzA3MDIxNDA2MTVaMFkxIzAhBgNVBAoMGlN3YXB0YWN1
bGFyIE5vZGVzIFJlZ2lzdHJ5MR8wHQYDVQQLDBZBY2NvdW50aW5nIEF1dGhvcml0
aWVzMREwDwYDVQQFEwgxMjM0YWJjZDCCAaIwDQYJKoZIhvcNAQEBBQADggGPADCC
AYoCggGBAMHTeOvs3guWcOhYrIj86VyBik7Aa5Ywju6Ajiqron7zMknQr5oDMKdc
DFmVg/myF8LeX9n2AVh7N87COp7UNg9NaiTQveFt85oKQviG+Gu2klGxwdL/AjL8
KJbunXnulwW/NnPee1r4Ilwgdz4kIIkPQ+OL32MhyZWp2x8vP/od4ZuGJwa1f9tC
2SRLZP+nFQyccCGWVSdmqfovzTwKtm3mWZhLVt6zNoxOG+3qwxgblb8k3l59h9HB
uHwzeDm0qVxF0wa/YCkQMX3Kxq5EkH8h5dgUSA9ZeN/y+4YysZWrliPfjQoI6aHg
QG8qN2ceLY+qjrICougibJR/41jJiMiZvwmC7AjvO3DLgKMO2Tv7vxJ2JugA5m2k
CEgzyQmewvA1zmd5Xw/XQ0yBQKqGzVeOooj65dAedVkMoBVgSXA7ZXUitqNsx6h+
kyMDOnvKgAj2riuNbH5E7vTNmNAVg0+Q6PNWP/Ncw0ylUiRvLkieZe8Z8qMBHe8E
YXoL2MUAHQIDAQABo38wfTAfBgNVHSMEGDAWgBQsz+hYUnj6PrpRclclOhm0rlLJ
NDAMBgNVHRMBAf8EAjAAMB0GA1UdJQQWMBQGCCsGAQUFBwMCBggrBgEFBQcDATAO
BgNVHQ8BAf8EBAMCBaAwHQYDVR0OBBYEFDHKn6nSR3iWn7kjSv++LnQytLGqMA0G
CSqGSIb3DQEBCwUAA4IBgQCX0eG4wete17OU8nj9k2SdC/6D7G2tdbQum5SKE2BM
HjPtddfMjx3loYDn+ycB79pwfTCz6sRA8xF33UB8Gyhnute81SMjnPNyeu9IZav/
hnF68YzETIb5DabQ2VzJab8CKJ7Qxm7uu9ehDS42LBEmSA44Poz50IIijUNx3Ufh
Lx2Cn1dPStR6KyHKXKImTcHOpmhVeZ1XGDhBK39LY6QeErCLAvySKObaDJYq/AKp
OsrpQHhWdKhPt35Acqw5PrvfNLU1W8pzM/XrtAfJD4iL37PTFcs4rDAwz/kDnTBK
1lhcJOHMsW2UdsNvBcXRdPna/EBhfaOQHntAsOjb13/YO8jurAdbL0/rHyz2iXxM
yUY/y3E2z2D7YrPkwKMaAdzmPyIp4TzJmE2zMDGacHWF/m78ctRdMsz2rPxvT5Sc
KHtZ6PGF5SkJLwYOAD76o8pa7OLf435/IeI5K0fQBTMvdzjlGzOLwIkgTLVF2ga2
w7POC17JaO+R3VPjSmV9B3k=
-----END CERTIFICATE-----
